 War3Injector

 Timestamp is 6509c38d (Tue Sep 19 18:51:41 2023)

 Preferred load address is 7e540000

 Start         Length     Name                   Class
 0001:00000000 00000050H .text$di                CODE
 0001:00000050 00017298H .text$mn                CODE
 0001:000172e8 0000038bH .text$x                 CODE
 0001:00017673 00000032H .text$yd                CODE
 0002:00000000 00000150H .idata$5                DATA
 0002:00000150 00000008H .00cfg                  DATA
 0002:00000158 00000004H .CRT$XCA                DATA
 0002:0000015c 0000000cH .CRT$XCC                DATA
 0002:00000168 00000008H .CRT$XCL                DATA
 0002:00000170 00000004H .CRT$XCZ                DATA
 0002:00000174 00000004H .CRT$XIA                DATA
 0002:00000178 00000010H .CRT$XIC                DATA
 0002:00000188 00000004H .CRT$XIZ                DATA
 0002:0000018c 00000004H .CRT$XPA                DATA
 0002:00000190 00000008H .CRT$XPX                DATA
 0002:00000198 00000004H .CRT$XPXA               DATA
 0002:0000019c 00000004H .CRT$XPZ                DATA
 0002:000001a0 00000004H .CRT$XTA                DATA
 0002:000001a4 0000001cH .CRT$XTZ                DATA
 0002:000001a8 00000000H .gfids$y                DATA
 0002:000001c0 00006fc0H .rdata                  DATA
 0002:00007180 00000000H .rdata$CastGuardVftablesA DATA
 0002:00007180 00000000H .rdata$CastGuardVftablesC DATA
 0002:00007180 00000954H .rdata$r                DATA
 0002:00007ad4 000000b8H .rdata$voltmd           DATA
 0002:00007b8c 00000384H .rdata$zzzdbg           DATA
 0002:00007f10 00000004H .rtc$IAA                DATA
 0002:00007f14 00000004H .rtc$IZZ                DATA
 0002:00007f18 00000004H .rtc$TAA                DATA
 0002:00007f1c 00000004H .rtc$TZZ                DATA
 0002:00007f20 00000c40H .xdata$x                DATA
 0002:00008b60 00000050H .edata                  DATA
 0002:00008bb0 00000028H .idata$2                DATA
 0002:00008bd8 00000014H .idata$3                DATA
 0002:00008bec 00000150H .idata$4                DATA
 0002:00008d3c 0000061aH .idata$6                DATA
 0003:00000000 00000a10H .data                   DATA
 0003:00000a10 00000160H .data$r                 DATA
 0003:00000b70 00000340H .data$rs                DATA
 0003:00000eb0 00000d10H .bss                    DATA
 0004:00000000 00000060H .rsrc$01                DATA
 0004:00000060 00000188H .rsrc$02                DATA

  Address         Publics by Value              Rva+Base       Lib:Object

 0000:00000000       ___AbsoluteZero            00000000     <absolute>
 0000:00000000       ___arm64x_extra_rfe_table  00000000     <absolute>
 0000:00000000       ___arm64x_extra_rfe_table_size 00000000     <absolute>
 0000:00000000       ___arm64x_native_entrypoint 00000000     <absolute>
 0000:00000000       ___arm64x_redirection_metadata 00000000     <absolute>
 0000:00000000       ___arm64x_redirection_metadata_count 00000000     <absolute>
 0000:00000000       ___dynamic_value_reloc_table 00000000     <absolute>
 0000:00000000       ___enclave_config          00000000     <absolute>
 0000:00000000       ___guard_check_icall_a64n_fptr 00000000     <absolute>
 0000:00000000       ___guard_eh_cont_count     00000000     <absolute>
 0000:00000000       ___guard_eh_cont_table     00000000     <absolute>
 0000:00000000       ___guard_fids_count        00000000     <absolute>
 0000:00000000       ___guard_fids_table        00000000     <absolute>
 0000:00000000       ___guard_iat_count         00000000     <absolute>
 0000:00000000       ___guard_iat_table         00000000     <absolute>
 0000:00000000       ___guard_longjmp_count     00000000     <absolute>
 0000:00000000       ___guard_longjmp_table     00000000     <absolute>
 0000:00000000       ___hybrid_auxiliary_delayload_iat 00000000     <absolute>
 0000:00000000       ___hybrid_auxiliary_delayload_iat_copy 00000000     <absolute>
 0000:00000000       ___hybrid_auxiliary_iat    00000000     <absolute>
 0000:00000000       ___hybrid_auxiliary_iat_copy 00000000     <absolute>
 0000:00000000       ___hybrid_code_map         00000000     <absolute>
 0000:00000000       ___hybrid_code_map_count   00000000     <absolute>
 0000:00000000       ___hybrid_image_info_bitfield 00000000     <absolute>
 0000:00000000       ___safe_se_handler_count   00000000     <absolute>
 0000:00000000       ___safe_se_handler_table   00000000     <absolute>
 0000:00000000       ___x64_code_ranges_to_entry_points 00000000     <absolute>
 0000:00000000       ___x64_code_ranges_to_entry_points_count 00000000     <absolute>
 0000:00000000       __except_list              00000000     <absolute>
 0000:00000100       ___guard_flags             00000100     <absolute>
 0000:00000000       ___ImageBase               7e540000     <linker-defined>
 0001:00000050       ??$?6_WU?$char_traits@_W@std@@@std@@YAAAV?$basic_ostream@_WU?$char_traits@_W@std@@@0@AAV10@PBD@Z 7e541050 f i w3l.obj
 0001:00000289       ??$?6_WU?$char_traits@_W@std@@@std@@YAAAV?$basic_ostream@_WU?$char_traits@_W@std@@@0@AAV10@PB_W@Z 7e541289 f i w3l.obj
 0001:00000478       ??$_Allocate@$07U_Default_allocate_traits@std@@$0A@@std@@YAPAXI@Z 7e541478 f i w3l.obj
 0001:0000049a       ??$_Allocate_manually_vector_aligned@U_Default_allocate_traits@std@@@std@@YAPAXI@Z 7e54149a f i w3l.obj
 0001:000004c5       ??$_Construct@$00PBD@?$basic_string@DU?$char_traits@D@std@@V?$allocator@D@2@@std@@AAEXQBDI@Z 7e5414c5 f i w3l.obj
 0001:00000537       ??$_Construct@$01PBD@?$basic_string@DU?$char_traits@D@std@@V?$allocator@D@2@@std@@AAEXQBDI@Z 7e541537 f i w3l.obj
 0001:000005a0       ??$_Deallocate@$07$0A@@std@@YAXPAXI@Z 7e5415a0 f i w3l.obj
 0001:000005cc       ??$_Reallocate_for@V<lambda_03628ca18370b1f44a99b655e704819b>@@PB_W@?$basic_string@_WU?$char_traits@_W@std@@V?$allocator@_W@2@@std@@AAEAAV01@IV<lambda_03628ca18370b1f44a99b655e704819b>@@PB_W@Z 7e5415cc f i w3l.obj
 0001:00000646       ??$_Reallocate_grow_by@V<lambda_ab246b20b9526e2ef7792587e4298a77>@@PBDI@?$basic_string@DU?$char_traits@D@std@@V?$allocator@D@2@@std@@AAEAAV01@IV<lambda_ab246b20b9526e2ef7792587e4298a77>@@PBDI@Z 7e541646 f i w3l.obj
 0001:000006d5       ??$use_facet@V?$ctype@_W@std@@@std@@YAABV?$ctype@_W@0@ABVlocale@0@@Z 7e5416d5 f i w3l.obj
 0001:0000076a       ??0?$basic_iostream@_WU?$char_traits@_W@std@@@std@@QAE@PAV?$basic_streambuf@_WU?$char_traits@_W@std@@@1@@Z 7e54176a f i w3l.obj
 0001:00000803       ??0?$basic_istream@_WU?$char_traits@_W@std@@@std@@QAE@PAV?$basic_streambuf@_WU?$char_traits@_W@std@@@1@_N@Z 7e541803 f i w3l.obj
 0001:00000883       ??0?$basic_streambuf@_WU?$char_traits@_W@std@@@std@@IAE@XZ 7e541883 f i w3l.obj
 0001:000008d7       ??0?$basic_string@DU?$char_traits@D@std@@V?$allocator@D@2@@std@@QAE@$$QAV01@@Z 7e5418d7 f i w3l.obj
 0001:000008fb       ??0?$basic_string@DU?$char_traits@D@std@@V?$allocator@D@2@@std@@QAE@ABV01@@Z 7e5418fb f i w3l.obj
 0001:0000092f       ??0?$basic_string@DU?$char_traits@D@std@@V?$allocator@D@2@@std@@QAE@QBD@Z 7e54192f f i w3l.obj
 0001:00000960       ??0?$basic_string@DU?$char_traits@D@std@@V?$allocator@D@2@@std@@QAE@QBDI@Z 7e541960 f i w3l.obj
 0001:00000988       ??0?$basic_stringbuf@_WU?$char_traits@_W@std@@V?$allocator@_W@2@@std@@QAE@H@Z 7e541988 f i w3l.obj
 0001:000009b4       ??0?$basic_stringstream@_WU?$char_traits@_W@std@@V?$allocator@_W@2@@std@@QAE@XZ 7e5419b4 f i w3l.obj
 0001:00000a47       ??0_Locinfo@std@@QAE@PBD@Z 7e541a47 f i w3l.obj
 0001:00000abd       ??0_Sentry_base@?$basic_ostream@_WU?$char_traits@_W@std@@@std@@QAE@AAV12@@Z 7e541abd f i w3l.obj
 0001:00000ade       ??0_System_error@std@@IAE@Verror_code@1@ABV?$basic_string@DU?$char_traits@D@std@@V?$allocator@D@2@@1@@Z 7e541ade f i w3l.obj
 0001:00000b32       ??0_System_error@std@@QAE@ABV01@@Z 7e541b32 f i w3l.obj
 0001:00000b59       ??0bad_alloc@std@@QAE@ABV01@@Z 7e541b59 f i w3l.obj
 0001:00000b71       ??0bad_array_new_length@std@@QAE@ABV01@@Z 7e541b71 f i w3l.obj
 0001:00000b89       ??0bad_array_new_length@std@@QAE@XZ 7e541b89 f i w3l.obj
 0001:00000ba1       ??0bad_cast@std@@QAE@ABV01@@Z 7e541ba1 f i w3l.obj
 0001:00000bb9       ??0bad_cast@std@@QAE@XZ    7e541bb9 f i w3l.obj
 0001:00000bd1       ??0exception@std@@QAE@ABV01@@Z 7e541bd1 f i w3l.obj
 0001:00000bfa       ??0exception@std@@QAE@QBD@Z 7e541bfa f i w3l.obj
 0001:00000c2f       ??0failure@ios_base@std@@QAE@ABV012@@Z 7e541c2f f i w3l.obj
 0001:00000c47       ??0failure@ios_base@std@@QAE@PBDABVerror_code@2@@Z 7e541c47 f i w3l.obj
 0001:00000c6e       ??0runtime_error@std@@QAE@ABV01@@Z 7e541c6e f i w3l.obj
 0001:00000c86       ??0runtime_error@std@@QAE@ABV?$basic_string@DU?$char_traits@D@std@@V?$allocator@D@2@@1@@Z 7e541c86 f i w3l.obj
 0001:00000cae       ??0sentry@?$basic_ostream@_WU?$char_traits@_W@std@@@std@@QAE@AAV12@@Z 7e541cae f i w3l.obj
 0001:00000d11       ??0system_error@std@@QAE@ABV01@@Z 7e541d11 f i w3l.obj
 0001:00000d29       ??0system_error@std@@QAE@Verror_code@1@PBD@Z 7e541d29 f i w3l.obj
 0001:00000d7b       ??1?$_Yarn@D@std@@QAE@XZ   7e541d7b f i w3l.obj
 0001:00000d7b       ??1?$_Yarn@_W@std@@QAE@XZ  7e541d7b f i w3l.obj
 0001:00000d90       ??1?$basic_ios@_WU?$char_traits@_W@std@@@std@@UAE@XZ 7e541d90 f i w3l.obj
 0001:00000dca       ??1?$basic_iostream@_WU?$char_traits@_W@std@@@std@@UAE@XZ 7e541dca f i w3l.obj
 0001:00000e20       ??1?$basic_istream@_WU?$char_traits@_W@std@@@std@@UAE@XZ 7e541e20 f i w3l.obj
 0001:00000e3c       ??1?$basic_streambuf@_WU?$char_traits@_W@std@@@std@@UAE@XZ 7e541e3c f i w3l.obj
 0001:00000e5d       ??1?$basic_string@DU?$char_traits@D@std@@V?$allocator@D@2@@std@@QAE@XZ 7e541e5d f i w3l.obj
 0001:00000e62       ??1?$basic_string@_WU?$char_traits@_W@std@@V?$allocator@_W@2@@std@@QAE@XZ 7e541e62 f i w3l.obj
 0001:00000e67       ??1?$basic_stringbuf@_WU?$char_traits@_W@std@@V?$allocator@_W@2@@std@@UAE@XZ 7e541e67 f i w3l.obj
 0001:00000e7d       ??1?$basic_stringstream@_WU?$char_traits@_W@std@@V?$allocator@_W@2@@std@@UAE@XZ 7e541e7d f i w3l.obj
 0001:00000eac       ??1?$ctype@_W@std@@MAE@XZ  7e541eac f i w3l.obj
 0001:00000ed5       ??1?$unique_ptr@V_Facet_base@std@@U?$default_delete@V_Facet_base@std@@@2@@std@@QAE@XZ 7e541ed5 f i w3l.obj
 0001:00000ee2       ??1_Locinfo@std@@QAE@XZ    7e541ee2 f i w3l.obj
 0001:00000f88       ??1_Sentry_base@?$basic_ostream@_WU?$char_traits@_W@std@@@std@@QAE@XZ 7e541f88 f i w3l.obj
 0001:00000fc5       ??1bad_alloc@std@@UAE@XZ   7e541fc5 f i libcpmt:xthrow.obj
 0001:00000fc5       ??1bad_array_new_length@std@@UAE@XZ 7e541fc5 f i w3l.obj
 0001:00000fc5       ??1bad_cast@std@@UAE@XZ    7e541fc5 f i w3l.obj
 0001:00000fc5       ??1bad_exception@std@@UAE@XZ 7e541fc5 f i libvcruntime:frame.obj
 0001:00000fc5       ??1failure@ios_base@std@@UAE@XZ 7e541fc5 f i w3l.obj
 0001:00000fc5       ??1length_error@std@@UAE@XZ 7e541fc5 f i libcpmt:xthrow.obj
 0001:00000fc5       ??1runtime_error@std@@UAE@XZ 7e541fc5 f i libcpmt:xthrow.obj
 0001:00000fd6       ??1locale@std@@QAE@XZ      7e541fd6 f i w3l.obj
 0001:00000fef       ??1sentry@?$basic_ostream@_WU?$char_traits@_W@std@@@std@@QAE@XZ 7e541fef f i w3l.obj
 0001:0000100a       ??8std@@YA_NABVerror_condition@0@0@Z 7e54200a f i w3l.obj
 0001:0000102f       ??Bid@locale@std@@QAEIXZ   7e54202f f i w3l.obj
 0001:00001064       ??R<lambda_ab246b20b9526e2ef7792587e4298a77>@@QBE@QADQBDI1I@Z 7e542064 f i w3l.obj
 0001:00001095       ??_D?$basic_iostream@_WU?$char_traits@_W@std@@@std@@QAEXXZ 7e542095 f i w3l.obj
 0001:000010db       ??_D?$basic_istream@_WU?$char_traits@_W@std@@@std@@QAEXXZ 7e5420db f i w3l.obj
 0001:00001131       ??_D?$basic_ostream@_WU?$char_traits@_W@std@@@std@@QAEXXZ 7e542131 f i w3l.obj
 0001:00001187       ??_D?$basic_stringstream@_WU?$char_traits@_W@std@@V?$allocator@_W@2@@std@@QAEXXZ 7e542187 f i w3l.obj
 0001:000011cd       ??_E?$basic_iostream@_WU?$char_traits@_W@std@@@std@@$4PPPPPPPM@A@AEPAXI@Z 7e5421cd f i w3l.obj
 0001:000011d5       ??_E?$basic_istream@_WU?$char_traits@_W@std@@@std@@$4PPPPPPPM@A@AEPAXI@Z 7e5421d5 f i w3l.obj
 0001:000011dd       ??_E?$basic_ostream@_WU?$char_traits@_W@std@@@std@@$4PPPPPPPM@A@AEPAXI@Z 7e5421dd f i w3l.obj
 0001:000011e5       ??_E?$basic_stringstream@_WU?$char_traits@_W@std@@V?$allocator@_W@2@@std@@$4PPPPPPPM@A@AEPAXI@Z 7e5421e5 f i w3l.obj
 0001:000011ed       ??_E?$basic_ios@_WU?$char_traits@_W@std@@@std@@UAEPAXI@Z 7e5421ed f i w3l.obj
 0001:000011ed       ??_G?$basic_ios@_WU?$char_traits@_W@std@@@std@@UAEPAXI@Z 7e5421ed f i w3l.obj
 0001:0000123f       ??_E?$basic_iostream@_WU?$char_traits@_W@std@@@std@@UAEPAXI@Z 7e54223f f i w3l.obj
 0001:0000123f       ??_G?$basic_iostream@_WU?$char_traits@_W@std@@@std@@UAEPAXI@Z 7e54223f f i w3l.obj
 0001:00001261       ??_E?$basic_istream@_WU?$char_traits@_W@std@@@std@@UAEPAXI@Z 7e542261 f i w3l.obj
 0001:00001261       ??_G?$basic_istream@_WU?$char_traits@_W@std@@@std@@UAEPAXI@Z 7e542261 f i w3l.obj
 0001:00001283       ??_E?$basic_ostream@_WU?$char_traits@_W@std@@@std@@UAEPAXI@Z 7e542283 f i w3l.obj
 0001:00001283       ??_G?$basic_ostream@_WU?$char_traits@_W@std@@@std@@UAEPAXI@Z 7e542283 f i w3l.obj
 0001:000012a5       ??_E?$basic_streambuf@_WU?$char_traits@_W@std@@@std@@UAEPAXI@Z 7e5422a5 f i w3l.obj
 0001:000012a5       ??_G?$basic_streambuf@_WU?$char_traits@_W@std@@@std@@UAEPAXI@Z 7e5422a5 f i w3l.obj
 0001:000012c4       ??_E?$basic_stringbuf@_WU?$char_traits@_W@std@@V?$allocator@_W@2@@std@@UAEPAXI@Z 7e5422c4 f i w3l.obj
 0001:000012c4       ??_G?$basic_stringbuf@_WU?$char_traits@_W@std@@V?$allocator@_W@2@@std@@UAEPAXI@Z 7e5422c4 f i w3l.obj
 0001:000012e3       ??_E?$basic_stringstream@_WU?$char_traits@_W@std@@V?$allocator@_W@2@@std@@UAEPAXI@Z 7e5422e3 f i w3l.obj
 0001:000012e3       ??_G?$basic_stringstream@_WU?$char_traits@_W@std@@V?$allocator@_W@2@@std@@UAEPAXI@Z 7e5422e3 f i w3l.obj
 0001:00001308       ??_E?$ctype@_W@std@@MAEPAXI@Z 7e542308 f i w3l.obj
 0001:00001308       ??_G?$ctype@_W@std@@MAEPAXI@Z 7e542308 f i w3l.obj
 0001:00001327       ??_E_Facet_base@std@@UAEPAXI@Z 7e542327 f i w3l.obj
 0001:00001327       ??_G_Facet_base@std@@UAEPAXI@Z 7e542327 f i w3l.obj
 0001:00001347       ??_E_Iostream_error_category2@std@@UAEPAXI@Z 7e542347 f i w3l.obj
 0001:00001347       ??_G_Iostream_error_category2@std@@UAEPAXI@Z 7e542347 f i w3l.obj
 0001:00001361       ??_E_System_error@std@@UAEPAXI@Z 7e542361 f i w3l.obj
 0001:00001361       ??_Efailure@ios_base@std@@UAEPAXI@Z 7e542361 f i w3l.obj
 0001:00001361       ??_Esystem_error@std@@UAEPAXI@Z 7e542361 f i w3l.obj
 0001:00001361       ??_G_System_error@std@@UAEPAXI@Z 7e542361 f i w3l.obj
 0001:00001361       ??_Gfailure@ios_base@std@@UAEPAXI@Z 7e542361 f i w3l.obj
 0001:00001361       ??_Gsystem_error@std@@UAEPAXI@Z 7e542361 f i w3l.obj
 0001:0000138b       ??_Ebad_alloc@std@@UAEPAXI@Z 7e54238b f i w3l.obj
 0001:0000138b       ??_Ebad_array_new_length@std@@UAEPAXI@Z 7e54238b f i w3l.obj
 0001:0000138b       ??_Ebad_cast@std@@UAEPAXI@Z 7e54238b f i w3l.obj
 0001:0000138b       ??_Eexception@std@@UAEPAXI@Z 7e54238b f i w3l.obj
 0001:0000138b       ??_Eruntime_error@std@@UAEPAXI@Z 7e54238b f i w3l.obj
 0001:0000138b       ??_Gbad_alloc@std@@UAEPAXI@Z 7e54238b f i w3l.obj
 0001:0000138b       ??_Gbad_array_new_length@std@@UAEPAXI@Z 7e54238b f i w3l.obj
 0001:0000138b       ??_Gbad_cast@std@@UAEPAXI@Z 7e54238b f i w3l.obj
 0001:0000138b       ??_Gexception@std@@UAEPAXI@Z 7e54238b f i w3l.obj
 0001:0000138b       ??_Gruntime_error@std@@UAEPAXI@Z 7e54238b f i w3l.obj
 0001:000013b5       ??_Eios_base@std@@UAEPAXI@Z 7e5423b5 f i w3l.obj
 0001:000013b5       ??_Gios_base@std@@UAEPAXI@Z 7e5423b5 f i w3l.obj
 0001:00001407       ?GetProcessBaseAddress@@YAKPAX0@Z 7e542407 f   w3l.obj
 0001:00001473       ?InitLoader@@YAHPA_W0000@Z 7e542473 f   w3l.obj
 0001:00001864       ?InjectByte@@YAHU_PROCESS_INFORMATION@@PBXDD@Z 7e542864 f   w3l.obj
 0001:00001922       ?_Adjust_manually_vector_aligned@std@@YAXAAPAXAAI@Z 7e542922 f i w3l.obj
 0001:00001944       ?_C_str@locale@std@@QBEPBDXZ 7e542944 f i w3l.obj
 0001:0000195c       ?_Calculate_growth@?$basic_string@DU?$char_traits@D@std@@V?$allocator@D@2@@std@@CAIIII@Z 7e54295c f i w3l.obj
 0001:0000198d       ?_Calculate_growth@?$basic_string@_WU?$char_traits@_W@std@@V?$allocator@_W@2@@std@@CAIIII@Z 7e54298d f i w3l.obj
 0001:000019be       ?_Decref@facet@locale@std@@UAEPAV_Facet_base@3@XZ 7e5429be f i w3l.obj
 0001:000019cd       ?_Donarrow@?$ctype@_W@std@@IBED_WD@Z 7e5429cd f i w3l.obj
 0001:00001a06       ?_Dowiden@?$ctype@_W@std@@IBE_WD@Z 7e542a06 f i w3l.obj
 0001:00001a43       ?_Get_buffer_view@?$basic_stringbuf@_WU?$char_traits@_W@std@@V?$allocator@_W@2@@std@@QBE?AU_Buffer_view@12@XZ 7e542a43 f i w3l.obj
 0001:00001abb       ?_Getcat@?$ctype@_W@std@@SAIPAPBVfacet@locale@2@PBV42@@Z 7e542abb f i w3l.obj
 0001:00001b38       ?_Getfacet@locale@std@@QBEPBVfacet@12@I@Z 7e542b38 f i w3l.obj
 0001:00001b78       ?_Getstate@?$basic_stringbuf@_WU?$char_traits@_W@std@@V?$allocator@_W@2@@std@@CAHH@Z 7e542b78 f i w3l.obj
 0001:00001baa       ?_Incref@facet@locale@std@@UAEXXZ 7e542baa f i w3l.obj
 0001:00001baf       ?_Init@?$basic_streambuf@_WU?$char_traits@_W@std@@@std@@IAEXXZ 7e542baf f i w3l.obj
 0001:00001bed       ?_Init@?$ctype@_W@std@@IAEXABV_Locinfo@2@@Z 7e542bed f i w3l.obj
 0001:00001c26       ?_Init@ios_base@std@@IAEXXZ 7e542c26 f i w3l.obj
 0001:00001c9b       ?_Lock@?$basic_streambuf@_WU?$char_traits@_W@std@@@std@@UAEXXZ 7e542c9b f i w3l.obj
 0001:00001c9b       ?_Unlock@?$basic_streambuf@_WU?$char_traits@_W@std@@@std@@UAEXXZ 7e542c9b f i w3l.obj
 0001:00001c9b       @_guard_check_icall_nop@4  7e542c9b f i LIBCMT:guard_support.obj
 0001:00001c9e       ?_Makestr@_System_error@std@@CA?AV?$basic_string@DU?$char_traits@D@std@@V?$allocator@D@2@@2@Verror_code@2@V32@@Z 7e542c9e f i w3l.obj
 0001:00001d22       ?_Osfx@?$basic_ostream@_WU?$char_traits@_W@std@@@std@@QAEXXZ 7e542d22 f i w3l.obj
 0001:00001d97       ?_Take_contents@?$basic_string@DU?$char_traits@D@std@@V?$allocator@D@2@@std@@AAEXAAV12@@Z 7e542d97 f i w3l.obj
 0001:00001dba       ?_Throw_bad_array_new_length@std@@YAXXZ 7e542dba f i w3l.obj
 0001:00001dba       ?__scrt_throw_std_bad_array_new_length@@YAXXZ 7e542dba f i LIBCMT:throw_bad_alloc.obj
 0001:00001dd7       ?_Throw_bad_cast@std@@YAXXZ 7e542dd7 f i w3l.obj
 0001:00001df4       ?_Tidy@?$basic_stringbuf@_WU?$char_traits@_W@std@@V?$allocator@_W@2@@std@@IAEXXZ 7e542df4 f i w3l.obj
 0001:00001e58       ?_Tidy_deallocate@?$basic_string@DU?$char_traits@D@std@@V?$allocator@D@2@@std@@AAEXXZ 7e542e58 f i w3l.obj
 0001:00001e7e       ?_Tidy_deallocate@?$basic_string@_WU?$char_traits@_W@std@@V?$allocator@_W@2@@std@@AAEXXZ 7e542e7e f i w3l.obj
 0001:00001eac       ?_Xlen_string@std@@YAXXZ   7e542eac f i w3l.obj
 0001:00001eb7       ?allocate@?$allocator@_W@std@@QAEPA_WI@Z 7e542eb7 f i w3l.obj
 0001:00001ed4       ?append@?$basic_string@DU?$char_traits@D@std@@V?$allocator@D@2@@std@@QAEAAV12@QBDI@Z 7e542ed4 f i w3l.obj
 0001:00001f2d       ?assign@?$basic_string@_WU?$char_traits@_W@std@@V?$allocator@_W@2@@std@@QAEAAV12@QB_WI@Z 7e542f2d f i w3l.obj
 0001:00001f78       ?clear@ios_base@std@@QAEXH_N@Z 7e542f78 f i w3l.obj
 0001:00001fe2       ?copy@?$_Char_traits@DH@std@@SAPADQADQBDI@Z 7e542fe2 f i w3l.obj
 0001:00001fe2       ?move@?$_Char_traits@DH@std@@SAPADQADQBDI@Z 7e542fe2 f i w3l.obj
 0001:00001ffb       ?copy@?$_Char_traits@_WG@std@@SAPA_WQA_WQB_WI@Z 7e542ffb f i w3l.obj
 0001:00001ffb       ?move@?$_Char_traits@_WG@std@@SAPA_WQA_WQB_WI@Z 7e542ffb f i w3l.obj
 0001:00002017       ?debug@@YAXPADZZ           7e543017 f   w3l.obj
 0001:000020a0       ?default_error_condition@error_category@std@@UBE?AVerror_condition@2@H@Z 7e5430a0 f i w3l.obj
 0001:000020b0       ?do_is@?$ctype@_W@std@@MBEPB_WPB_W0PAF@Z 7e5430b0 f i w3l.obj
 0001:000020cb       ?do_is@?$ctype@_W@std@@MBE_NF_W@Z 7e5430cb f i w3l.obj
 0001:000020e5       ?do_narrow@?$ctype@_W@std@@MBED_WD@Z 7e5430e5 f i w3l.obj
 0001:000020ea       ?do_narrow@?$ctype@_W@std@@MBEPB_WPB_W0DPAD@Z 7e5430ea f i w3l.obj
 0001:0000211f       ?do_scan_is@?$ctype@_W@std@@MBEPB_WFPB_W0@Z 7e54311f f i w3l.obj
 0001:0000214c       ?do_scan_not@?$ctype@_W@std@@MBEPB_WFPB_W0@Z 7e54314c f i w3l.obj
 0001:00002179       ?do_tolower@?$ctype@_W@std@@MBEPB_WPA_WPB_W@Z 7e543179 f i w3l.obj
 0001:000021a7       ?do_tolower@?$ctype@_W@std@@MBE_W_W@Z 7e5431a7 f i w3l.obj
 0001:000021b9       ?do_toupper@?$ctype@_W@std@@MBEPB_WPA_WPB_W@Z 7e5431b9 f i w3l.obj
 0001:000021e7       ?do_toupper@?$ctype@_W@std@@MBE_W_W@Z 7e5431e7 f i w3l.obj
 0001:000021f9       ?do_widen@?$ctype@_W@std@@MBEPBDPBD0PA_W@Z 7e5431f9 f i w3l.obj
 0001:0000222c       ?do_widen@?$ctype@_W@std@@MBE_WD@Z 7e54322c f i w3l.obj
 0001:00002231       ?equivalent@error_category@std@@UBE_NABVerror_code@2@H@Z 7e543231 f i w3l.obj
 0001:00002253       ?equivalent@error_category@std@@UBE_NHABVerror_condition@2@@Z 7e543253 f i w3l.obj
 0001:00002273       ?flush@?$basic_ostream@_WU?$char_traits@_W@std@@@std@@QAEAAV12@XZ 7e543273 f i w3l.obj
 0001:00002336       ?imbue@?$basic_streambuf@_WU?$char_traits@_W@std@@@std@@MAEXABVlocale@2@@Z 7e543336 f i w3l.obj
 0001:00002339       ?init@?$basic_ios@_WU?$char_traits@_W@std@@@std@@IAEXPAV?$basic_streambuf@_WU?$char_traits@_W@std@@@2@_N@Z 7e543339 f i w3l.obj
 0001:00002381       ?make_error_code@std@@YA?AVerror_code@1@W4io_errc@1@@Z 7e543381 f i w3l.obj
 0001:00002393       ?message@_Iostream_error_category2@std@@UBE?AV?$basic_string@DU?$char_traits@D@std@@V?$allocator@D@2@@2@H@Z 7e543393 f i w3l.obj
 0001:000023c7       ?name@_Iostream_error_category2@std@@UBEPBDXZ 7e5433c7 f i w3l.obj
 0001:000023cd       ?overflow@?$basic_streambuf@_WU?$char_traits@_W@std@@@std@@MAEGG@Z 7e5433cd f i w3l.obj
 0001:000023cd       ?pbackfail@?$basic_streambuf@_WU?$char_traits@_W@std@@@std@@MAEGG@Z 7e5433cd f i w3l.obj
 0001:000023d5       ?overflow@?$basic_stringbuf@_WU?$char_traits@_W@std@@V?$allocator@_W@2@@std@@MAEGG@Z 7e5433d5 f i w3l.obj
 0001:0000253b       ?pbackfail@?$basic_stringbuf@_WU?$char_traits@_W@std@@V?$allocator@_W@2@@std@@MAEGG@Z 7e54353b f i w3l.obj
 0001:00002599       ?seekoff@?$basic_streambuf@_WU?$char_traits@_W@std@@@std@@MAE?AV?$fpos@U_Mbstatet@@@2@_JHH@Z 7e543599 f i w3l.obj
 0001:000025b5       ?seekoff@?$basic_stringbuf@_WU?$char_traits@_W@std@@V?$allocator@_W@2@@std@@MAE?AV?$fpos@U_Mbstatet@@@2@_JHH@Z 7e5435b5 f i w3l.obj
 0001:00002772       ?seekpos@?$basic_streambuf@_WU?$char_traits@_W@std@@@std@@MAE?AV?$fpos@U_Mbstatet@@@2@V32@H@Z 7e543772 f i w3l.obj
 0001:0000278e       ?seekpos@?$basic_stringbuf@_WU?$char_traits@_W@std@@V?$allocator@_W@2@@std@@MAE?AV?$fpos@U_Mbstatet@@@2@V32@H@Z 7e54378e f i w3l.obj
 0001:000028e2       ?setbuf@?$basic_streambuf@_WU?$char_traits@_W@std@@@std@@MAEPAV12@PA_W_J@Z 7e5438e2 f i w3l.obj
 0001:000028e7       ?showmanyc@?$basic_streambuf@_WU?$char_traits@_W@std@@@std@@MAE_JXZ 7e5438e7 f i w3l.obj
 0001:000028ec       ?sputc@?$basic_streambuf@_WU?$char_traits@_W@std@@@std@@QAEG_W@Z 7e5438ec f i w3l.obj
 0001:00002920       ?str@?$basic_stringbuf@_WU?$char_traits@_W@std@@V?$allocator@_W@2@@std@@QBE?AV?$basic_string@_WU?$char_traits@_W@std@@V?$allocator@_W@2@@2@XZ 7e543920 f i w3l.obj
 0001:00002986       ?sync@?$basic_streambuf@_WU?$char_traits@_W@std@@@std@@MAEHXZ 7e543986 f i w3l.obj
 0001:00002989       ?uflow@?$basic_streambuf@_WU?$char_traits@_W@std@@@std@@MAEGXZ 7e543989 f i w3l.obj
 0001:000029b2       ?underflow@?$basic_streambuf@_WU?$char_traits@_W@std@@@std@@MAEGXZ 7e5439b2 f i w3l.obj
 0001:000029b8       ?underflow@?$basic_stringbuf@_WU?$char_traits@_W@std@@V?$allocator@_W@2@@std@@MAEGXZ 7e5439b8 f i w3l.obj
 0001:00002a18       ?what@exception@std@@UBEPBDXZ 7e543a18 f i w3l.obj
 0001:00002a26       ?widen@?$basic_ios@_WU?$char_traits@_W@std@@@std@@QBE_WD@Z 7e543a26 f i w3l.obj
 0001:00002a76       ?xsgetn@?$basic_streambuf@_WU?$char_traits@_W@std@@@std@@MAE_JPA_W_J@Z 7e543a76 f i w3l.obj
 0001:00002b77       ?xsputn@?$basic_streambuf@_WU?$char_traits@_W@std@@@std@@MAE_JPB_W_J@Z 7e543b77 f i w3l.obj
 0001:00002c71       ??0_Init_locks@std@@QAE@XZ 7e543c71 f   libcpmt:xlock.obj
 0001:00002c9e       ??0_Lockit@std@@QAE@H@Z    7e543c9e f   libcpmt:xlock.obj
 0001:00002ccf       ??1_Init_locks@std@@QAE@XZ 7e543ccf f   libcpmt:xlock.obj
 0001:00002cf6       ??1_Lockit@std@@QAE@XZ     7e543cf6 f   libcpmt:xlock.obj
 0001:00002d15       ?uncaught_exception@std@@YA_NXZ 7e543d15 f   libcpmt:uncaught_exception.obj
 0001:00002d1a       ??0bad_alloc@std@@QAE@XZ   7e543d1a f i libcpmt:xthrow.obj
 0001:00002d32       ??0length_error@std@@QAE@ABV01@@Z 7e543d32 f i libcpmt:xthrow.obj
 0001:00002d4d       ??0length_error@std@@QAE@PBD@Z 7e543d4d f i libcpmt:xthrow.obj
 0001:00002d6c       ??0logic_error@std@@QAE@ABV01@@Z 7e543d6c f i libcpmt:xthrow.obj
 0001:00002d87       ??0runtime_error@std@@QAE@PBD@Z 7e543d87 f i libcpmt:xthrow.obj
 0001:00002da6       ??_Ebad_exception@std@@UAEPAXI@Z 7e543da6 f i libvcruntime:frame.obj
 0001:00002da6       ??_Elength_error@std@@UAEPAXI@Z 7e543da6 f i libcpmt:xthrow.obj
 0001:00002da6       ??_Elogic_error@std@@UAEPAXI@Z 7e543da6 f i libcpmt:xthrow.obj
 0001:00002da6       ??_Gbad_exception@std@@UAEPAXI@Z 7e543da6 f i libvcruntime:frame.obj
 0001:00002da6       ??_Glength_error@std@@UAEPAXI@Z 7e543da6 f i libcpmt:xthrow.obj
 0001:00002da6       ??_Glogic_error@std@@UAEPAXI@Z 7e543da6 f i libcpmt:xthrow.obj
 0001:00002dd3       ?_Xlength_error@std@@YAXPBD@Z 7e543dd3 f   libcpmt:xthrow.obj
 0001:00002df3       ?_Xruntime_error@std@@YAXPBD@Z 7e543df3 f   libcpmt:xthrow.obj
 0001:00002e13       ?_Syserror_map@std@@YAPBDH@Z 7e543e13 f   libcpmt:syserror.obj
 0001:00002e38       ??0_Locimp@locale@std@@AAE@_N@Z 7e543e38 f i libcpmt:locale0.obj
 0001:00002e79       ??1_Fac_node@std@@QAE@XZ   7e543e79 f i libcpmt:locale0.obj
 0001:00002eaa       ??1_Fac_tidy_reg_t@std@@QAE@XZ 7e543eaa f i libcpmt:locale0.obj
 0001:00002ed1       ??1_Locimp@locale@std@@MAE@XZ 7e543ed1 f i libcpmt:locale0.obj
 0001:00002efc       ??4?$_Yarn@D@std@@QAEAAV01@PBD@Z 7e543efc f i libcpmt:locale0.obj
 0001:00002f50       ??_E_Locimp@locale@std@@MAEPAXI@Z 7e543f50 f i libcpmt:locale0.obj
 0001:00002f50       ??_G_Locimp@locale@std@@MAEPAXI@Z 7e543f50 f i libcpmt:locale0.obj
 0001:00002f72       ?_Facet_Register@std@@YAXPAV_Facet_base@1@@Z 7e543f72 f   libcpmt:locale0.obj
 0001:00002f9e       ?_Getgloballocale@locale@std@@CAPAV_Locimp@12@XZ 7e543f9e f   libcpmt:locale0.obj
 0001:00002fa4       ?_Init@locale@std@@CAPAV_Locimp@12@_N@Z 7e543fa4 f   libcpmt:locale0.obj
 0001:00003031       ?_Locimp_dtor@_Locimp@locale@std@@CAXPAV123@@Z 7e544031 f   libcpmt:locale0.obj
 0001:000030a1       ?_Locinfo_ctor@_Locinfo@std@@SAXPAV12@PBD@Z 7e5440a1 f   libcpmt:locale0.obj
 0001:000030ec       ?_Locinfo_dtor@_Locinfo@std@@SAXPAV12@@Z 7e5440ec f   libcpmt:locale0.obj
 0001:00003106       ?_New_Locimp@_Locimp@locale@std@@CAPAV123@_N@Z 7e544106 f   libcpmt:locale0.obj
 0001:00003129       ?_Setgloballocale@locale@std@@CAXPAX@Z 7e544129 f   libcpmt:locale0.obj
 0001:00003151       __Deletegloballocale       7e544151 f   libcpmt:locale0.obj
 0001:000031b6       __Getctype                 7e5441b6 f   libcpmt:_tolower.obj
 0001:00003221       __Getcvt                   7e544221 f   libcpmt:xwctomb.obj
 0001:00003294       __Wcrtomb                  7e544294 f   libcpmt:xwctomb.obj
 0001:000032f0       __Mbrtowc                  7e5442f0 f   libcpmt:xmbtowc.obj
 0001:00003479       __Getwctype                7e544479 f   libcpmt:xgetwctype.obj
 0001:00003499       __Getwctypes               7e544499 f   libcpmt:xgetwctype.obj
 0001:000034b8       __Towlower                 7e5444b8 f   libcpmt:xtowlower.obj
 0001:00003518       __Towupper                 7e544518 f   libcpmt:xtowupper.obj
 0001:0000357c       ?_Addstd@ios_base@std@@SAXPAV12@@Z 7e54457c f   libcpmt:ios.obj
 0001:000035ce       ?_Callfns@ios_base@std@@AAEXW4event@12@@Z 7e5445ce f i libcpmt:ios.obj
 0001:00003601       ?_Ios_base_dtor@ios_base@std@@CAXPAV12@@Z 7e544601 f   libcpmt:ios.obj
 0001:00003641       ?_Tidy@ios_base@std@@AAEXXZ 7e544641 f i libcpmt:ios.obj
 0001:000036bc       __Mtxdst                   7e5446bc f   libcpmt:xmtx.obj
 0001:000036ca       __Mtxinit                  7e5446ca f   libcpmt:xmtx.obj
 0001:000036df       __Mtxlock                  7e5446df f   libcpmt:xmtx.obj
 0001:000036ed       __Mtxunlock                7e5446ed f   libcpmt:xmtx.obj
 0001:000036fb       ___local_stdio_printf_options 7e5446fb f i libcpmt:locale.obj
 0001:00003701       ??1_Init_atexit@@QAE@XZ    7e544701 f i libcpmt:iosptrs.obj
 0001:00003769       ?_Atexit@@YAXP6AXXZ@Z      7e544769 f   libcpmt:iosptrs.obj
 0001:00003798       __freea_crt                7e544798 f i libcpmt:StlLCMapStringA.obj
 0001:000037b6       ___crtLCMapStringW         7e5447b6 f   libcpmt:StlLCMapStringW.obj
 0001:000037f3       ??2@YAPAXI@Z               7e5447f3 f   LIBCMT:new_scalar.obj
 0001:00003823       ??3@YAXPAXI@Z              7e544823 f   LIBCMT:delete_scalar_size.obj
 0001:00003834       __EH_prolog                7e544834 f   LIBCMT:ehprolog.obj
 0001:00003853       ??_Etype_info@@UAEPAXI@Z   7e544853 f i LIBCMT:std_type_info_static.obj
 0001:00003853       ??_Gtype_info@@UAEPAXI@Z   7e544853 f i LIBCMT:std_type_info_static.obj
 0001:00003bb6       __DllMainCRTStartup@12     7e544bb6 f   LIBCMT:dll_dllmain.obj
 0001:00003c1d       ___scrt_acquire_startup_lock 7e544c1d f   LIBCMT:utility.obj
 0001:00003c4f       ___scrt_dllmain_after_initialize_c 7e544c4f f   LIBCMT:utility.obj
 0001:00003c7a       ___scrt_dllmain_before_initialize_c 7e544c7a f   LIBCMT:utility.obj
 0001:00003c88       ___scrt_dllmain_crt_thread_attach 7e544c88 f   LIBCMT:utility.obj
 0001:00003ca7       ___scrt_dllmain_crt_thread_detach 7e544ca7 f   LIBCMT:utility.obj
 0001:00003cb4       ___scrt_dllmain_exception_filter 7e544cb4 f   LIBCMT:utility.obj
 0001:00003ce8       ___scrt_dllmain_uninitialize_c 7e544ce8 f   LIBCMT:utility.obj
 0001:00003d0b       ___scrt_dllmain_uninitialize_critical 7e544d0b f   LIBCMT:utility.obj
 0001:00003d18       ___scrt_initialize_crt     7e544d18 f   LIBCMT:utility.obj
 0001:00003d51       ___scrt_initialize_onexit_tables 7e544d51 f   LIBCMT:utility.obj
 0001:00003dd8       ___scrt_is_nonwritable_in_current_image 7e544dd8 f   LIBCMT:utility.obj
 0001:00003e6c       ___scrt_release_startup_lock 7e544e6c f   LIBCMT:utility.obj
 0001:00003e89       ___scrt_uninitialize_crt   7e544e89 f   LIBCMT:utility.obj
 0001:00003eb1       __onexit                   7e544eb1 f   LIBCMT:utility.obj
 0001:00003ede       _atexit                    7e544ede f   LIBCMT:utility.obj
 0001:00003ef3       @__security_check_cookie@4 7e544ef3 f   LIBCMT:secchk.obj
 0001:00003f01       __EH_epilog3               7e544f01 f   LIBCMT:ehprolg3.obj
 0001:00003f15       __EH_prolog3               7e544f15 f   LIBCMT:ehprolg3.obj
 0001:00003f48       __EH_prolog3_catch         7e544f48 f   LIBCMT:ehprolg3.obj
 0001:00003f80       __alloca_probe_16          7e544f80 f   LIBCMT:alloca16.obj
 0001:00003f96       __alloca_probe_8           7e544f96     LIBCMT:alloca16.obj
 0001:00003fac       ___isa_available_init      7e544fac f   LIBCMT:cpu_disp.obj
 0001:00004180       ?__scrt_throw_std_bad_alloc@@YAXXZ 7e545180 f   LIBCMT:throw_bad_alloc.obj
 0001:0000419d       ??3@YAXPAX@Z               7e54519d f   LIBCMT:delete_scalar.obj
 0001:000041ef       ___security_init_cookie    7e5451ef f   LIBCMT:gs_support.obj
 0001:0000423a       _DllMain@12                7e54523a f   LIBCMT:dll_dllmain_stub.obj
 0001:00004240       ?__scrt_initialize_type_info@@YAXXZ 7e545240 f   LIBCMT:tncleanup.obj
 0001:0000424c       ?__scrt_uninitialize_type_info@@YAXXZ 7e54524c f   LIBCMT:tncleanup.obj
 0001:00004258       ___local_stdio_scanf_options 7e545258 f i LIBCMT:default_local_stdio_options.obj
 0001:0000425e       ___scrt_initialize_default_local_stdio_options 7e54525e f   LIBCMT:default_local_stdio_options.obj
 0001:0000427b       ___scrt_get_dyn_tls_init_callback 7e54527b f   LIBCMT:dyn_tls_init.obj
 0001:00004281       ___scrt_fastfail           7e545281 f   LIBCMT:utility_desktop.obj
 0001:0000439c       __crt_debugger_hook        7e54539c f   LIBCMT:utility_desktop.obj
 0001:000043a4       __RTC_Initialize           7e5453a4 f   LIBCMT:initsect.obj
 0001:000043d0       __RTC_Terminate            7e5453d0 f   LIBCMT:initsect.obj
 0001:00004400       __SEH_prolog4              7e545400 f   LIBCMT:sehprolg4.obj
 0001:00004445       __get_startup_argv_mode    7e545445 f   LIBCMT:argv_mode.obj
 0001:00004449       ___scrt_is_ucrt_dll_in_use 7e545449 f   LIBCMT:ucrt_detection.obj
 0001:00004455       ___raise_securityfailure   7e545455 f   LIBCMT:gs_report.obj
 0001:0000447d       ___report_gsfailure        7e54547d f   LIBCMT:gs_report.obj
 0001:00004577       ___report_rangecheckfailure 7e545577 f   LIBCMT:gs_report.obj
 0001:00004583       ___report_securityfailure  7e545583 f   LIBCMT:gs_report.obj
 0001:00004660       __alloca_probe             7e545660 f   LIBCMT:chkstk.obj
 0001:00004660       __chkstk                   7e545660 f   LIBCMT:chkstk.obj
 0001:0000468b       __get_purecall_handler     7e54568b f   libvcruntime:purevirt.obj
 0001:00004692       __purecall                 7e545692 f   libvcruntime:purevirt.obj
 0001:000046ae       ___DestructExceptionObject 7e5456ae f   libvcruntime:ehhelpers.obj
 0001:0000474f       ?_CallMemberFunction0@@YGXQAX0@Z 7e54574f f i libvcruntime:ehhelpers.obj
 0001:000047b4       __IsExceptionObjectToBeDestroyed 7e5457b4 f   libvcruntime:ehhelpers.obj
 0001:000047da       ___AdjustPointer           7e5457da f   libvcruntime:ehhelpers.obj
 0001:000047ff       ___FrameUnwindFilter       7e5457ff f   libvcruntime:ehhelpers.obj
 0001:00004855       ___std_terminate           7e545855 f   libvcruntime:ehhelpers.obj
 0001:0000485a       _memcmp                    7e54585a f   libvcruntime:memcmp.obj
 0001:00005ee0       _memcpy                    7e546ee0 f   libvcruntime:memcpy.obj
 0001:00005ee0       _memmove                   7e546ee0 f   libvcruntime:memmove.obj
 0001:00006460       _memset                    7e547460 f   libvcruntime:memset.obj
 0001:000065ba       ___std_exception_copy      7e5475ba f   libvcruntime:std_exception.obj
 0001:0000661d       ___std_exception_destroy   7e54761d f   libvcruntime:std_exception.obj
 0001:0000663c       __CxxThrowException@8      7e54763c f   libvcruntime:throw.obj
 0001:000066a8       ?GetRangeOfTrysToCheck@__FrameHandler3@@SA?AU?$pair@Viterator@TryBlockMap@__FrameHandler3@@V123@@std@@AAVTryBlockMap@1@HPAXPBU_s_FuncInfo@@H@Z 7e5476a8 f   libvcruntime:trnsctrl.obj
 0001:00006718       ?_CallCatchBlock2@@YAPAXPAUEHRegistrationNode@@PBU_s_FuncInfo@@PAXHK@Z 7e547718 f   libvcruntime:trnsctrl.obj
 0001:00006775       ?_CallSETranslator@@YAHPAUEHExceptionRecord@@PAUEHRegistrationNode@@PAX2PBU_s_FuncInfo@@H1@Z 7e547775 f   libvcruntime:trnsctrl.obj
 0001:0000686b       ?_JumpToContinuation@@YGXPAXPAUEHRegistrationNode@@@Z 7e54786b f   libvcruntime:trnsctrl.obj
 0001:0000689b       ?_UnwindNestedFrames@@YGXPAUEHRegistrationNode@@PAUEHExceptionRecord@@@Z 7e54789b f   libvcruntime:trnsctrl.obj
 0001:000068ee       __CatchGuardHandler        7e5478ee f   libvcruntime:trnsctrl.obj
 0001:0000691f       __CreateFrameInfo          7e54791f f   libvcruntime:trnsctrl.obj
 0001:00006943       __FindAndUnlinkFrame       7e547943 f   libvcruntime:trnsctrl.obj
 0001:0000698b       __TranslatorGuardHandler   7e54798b f   libvcruntime:trnsctrl.obj
 0001:00006a28       ___CxxFrameHandler3        7e547a28 f   libvcruntime:trnsctrl.obj
 0001:00006a5e       ___uncaught_exception      7e547a5e f   libvcruntime:uncaught_exception.obj
 0001:00006ac0       __except_handler4          7e547ac0 f   libvcruntime:chandler4.obj
 0001:00006c1e       ___vcrt_initialize         7e547c1e f   libvcruntime:initialization.obj
 0001:00006c3d       ___vcrt_thread_attach      7e547c3d f   libvcruntime:initialization.obj
 0001:00006c48       ___vcrt_thread_detach      7e547c48 f   libvcruntime:initialization.obj
 0001:00006c50       ___vcrt_uninitialize       7e547c50 f   libvcruntime:initialization.obj
 0001:00006c67       ___vcrt_uninitialize_critical 7e547c67 f   libvcruntime:initialization.obj
 0001:00006c6f       ___std_type_info_compare   7e547c6f f   libvcruntime:std_type_info.obj
 0001:00006cab       ___std_type_info_destroy_list 7e547cab f   libvcruntime:std_type_info.obj
 0001:00006cce       ___vcrt_freefls@4          7e547cce f   libvcruntime:per_thread_data.obj
 0001:00006cea       ___vcrt_freeptd_for_this_thread 7e547cea f   libvcruntime:per_thread_data.obj
 0001:00006d15       ___vcrt_getptd             7e547d15 f   libvcruntime:per_thread_data.obj
 0001:00006d23       ___vcrt_getptd_noexit      7e547d23 f   libvcruntime:per_thread_data.obj
 0001:00006db5       ___vcrt_getptd_noinit      7e547db5 f   libvcruntime:per_thread_data.obj
 0001:00006dec       ___vcrt_initialize_ptd     7e547dec f   libvcruntime:per_thread_data.obj
 0001:00006e1f       ___vcrt_uninitialize_ptd   7e547e1f f   libvcruntime:per_thread_data.obj
 0001:0000756c       ??$TypeMatchHelper@V__FrameHandler3@@@@YAHPBU_s_HandlerType@@PBU_s_CatchableType@@PBU_s_ThrowInfo@@@Z 7e54856c f i libvcruntime:frame.obj
 0001:000075fa       ??$__InternalCxxFrameHandler@V__FrameHandler3@@@@YA?AW4_EXCEPTION_DISPOSITION@@PAUEHExceptionRecord@@PAUEHRegistrationNode@@PAU_CONTEXT@@PAXPBU_s_FuncInfo@@H1E@Z 7e5485fa f i libvcruntime:frame.obj
 0001:000076fc       ??$__InternalCxxFrameHandlerWrapper@V__FrameHandler3@@@@YA?AW4_EXCEPTION_DISPOSITION@@PAUEHExceptionRecord@@PAUEHRegistrationNode@@PAU_CONTEXT@@PAXPBU_s_FuncInfo@@H1E@Z 7e5486fc f i libvcruntime:frame.obj
 0001:00007705       ??0bad_exception@std@@QAE@ABV01@@Z 7e548705 f i libvcruntime:frame.obj
 0001:00007720       ??0bad_exception@std@@QAE@XZ 7e548720 f i libvcruntime:frame.obj
 0001:00007738       ??8type_info@@QBE_NABV0@@Z 7e548738 f i libvcruntime:frame.obj
 0001:000079af       ?FrameUnwindToEmptyState@__FrameHandler3@@SAXPAUEHRegistrationNode@@PAXPBU_s_FuncInfo@@@Z 7e5489af f   libvcruntime:frame.obj
 0001:000079c7       ?FrameUnwindToState@__FrameHandler3@@SAXPAUEHRegistrationNode@@PAXPBU_s_FuncInfo@@H@Z 7e5489c7 f   libvcruntime:frame.obj
 0001:00007b49       ?_CallMemberFunction1@@YGXQAX00@Z 7e548b49 f i libvcruntime:frame.obj
 0001:00007b59       ?_CallMemberFunction2@@YGXQAX00H@Z 7e548b59 f i libvcruntime:frame.obj
 0001:00007b6c       ?getESTypes@__FrameHandler3@@SAPBU_s_ESTypeList@@PBU_s_FuncInfo@@@Z 7e548b6c f i libvcruntime:frame.obj
 0001:00007b80       __CallSettingFrame@12      7e548b80 f   libvcruntime:lowhelpr.obj
 0001:00007ba7       __NLG_Return               7e548ba7     libvcruntime:lowhelpr.obj
 0001:00007bcc       ___except_validate_context_record 7e548bcc f   libvcruntime:jbcxrval.obj
 0001:00007c00       __local_unwind4            7e548c00 f   libvcruntime:exsup4.obj
 0001:00007cf0       @_EH4_CallFilterFunc@8     7e548cf0 f   libvcruntime:exsup4.obj
 0001:00007d10       @_EH4_TransferToHandler@8  7e548d10 f   libvcruntime:exsup4.obj
 0001:00007d30       @_EH4_GlobalUnwind2@8      7e548d30 f   libvcruntime:exsup4.obj
 0001:00007d50       @_EH4_LocalUnwind@16       7e548d50 f   libvcruntime:exsup4.obj
 0001:00007d67       ___vcrt_initialize_locks   7e548d67 f   libvcruntime:locks.obj
 0001:00007da3       ___vcrt_uninitialize_locks 7e548da3 f   libvcruntime:locks.obj
 0001:00007ebd       ___vcrt_FlsAlloc           7e548ebd f   libvcruntime:winapi_downlevel.obj
 0001:00007ef8       ___vcrt_FlsFree            7e548ef8 f   libvcruntime:winapi_downlevel.obj
 0001:00007f33       ___vcrt_FlsGetValue        7e548f33 f   libvcruntime:winapi_downlevel.obj
 0001:00007f6e       ___vcrt_FlsSetValue        7e548f6e f   libvcruntime:winapi_downlevel.obj
 0001:00007fac       ___vcrt_InitializeCriticalSectionEx 7e548fac f   libvcruntime:winapi_downlevel.obj
 0001:00007ff3       _unexpected                7e548ff3 f   libvcruntime:unexpected.obj
 0001:00008010       ?GetCurrentState@__FrameHandler3@@SAHPAUEHRegistrationNode@@PAXPBU_s_FuncInfo@@@Z 7e549010 f   libvcruntime:ehstate.obj
 0001:0000802d       ?SetState@__FrameHandler3@@SAXPAUEHRegistrationNode@@PBU_s_FuncInfo@@H@Z 7e54902d f   libvcruntime:ehstate.obj
 0001:00008040       __NLG_Notify1              7e549040 f   libvcruntime:exsup.obj
 0001:00008050       __NLG_Notify               7e549050 f   libvcruntime:exsup.obj
 0001:00008067       __NLG_Dispatch             7e549067     libvcruntime:exsup.obj
 0001:00008067       __NLG_Dispatch2            7e549067     libvcruntime:exsup.obj
 0001:00008070       __NLG_Call                 7e549070 f   libvcruntime:exsup.obj
 0001:00008072       __NLG_Return2              7e549072     libvcruntime:exsup.obj
 0001:00008073       ??0__crt_cached_ptd_host@@QAE@QAU__crt_locale_pointers@@@Z 7e549073 f i libucrt:invalid_parameter.obj
 0001:000080bb       ??1__crt_cached_ptd_host@@QAE@XZ 7e5490bb f i libucrt:invalid_parameter.obj
 0001:000080f7       ?check_synchronize_global_state_index@__crt_cached_ptd_host@@AAEIXZ 7e5490f7 f i libucrt:invalid_parameter.obj
 0001:00008120       ?force_synchronize_per_thread_data@__crt_cached_ptd_host@@AAEPAU__acrt_ptd@@XZ 7e549120 f i libucrt:invalid_parameter.obj
 0001:00008166       ?get_raw_ptd@__crt_cached_ptd_host@@QAEPAU__acrt_ptd@@XZ 7e549166 f i libucrt:invalid_parameter.obj
 0001:00008183       ___acrt_call_reportfault   7e549183 f   libucrt:invalid_parameter.obj
 0001:000082bc       ___acrt_initialize_invalid_parameter_handler 7e5492bc f   libucrt:invalid_parameter.obj
 0001:000082cb       __invalid_parameter        7e5492cb f   libucrt:invalid_parameter.obj
 0001:00008302       __invalid_parameter_internal 7e549302 f   libucrt:invalid_parameter.obj
 0001:0000837f       __invalid_parameter_noinfo 7e54937f f   libucrt:invalid_parameter.obj
 0001:0000838f       __invalid_parameter_noinfo_noreturn 7e54938f f   libucrt:invalid_parameter.obj
 0001:000083ac       __invoke_watson            7e5493ac f   libucrt:invalid_parameter.obj
 0001:000083e0       _wcslen                    7e5493e0 f   libucrt:strnlen.obj
 0001:00008508       _wcsnlen                   7e549508 f   libucrt:strnlen.obj
 0001:000086c0       _strlen                    7e5496c0 f   libucrt:strlen.obj
 0001:0000874b       _free                      7e54974b f   libucrt:free.obj
 0001:00008869       __wgetenv                  7e549869 f   libucrt:getenv.obj
 0001:00008874       ___acrt_initialize_locks   7e549874 f   libucrt:locks.obj
 0001:000088b5       ___acrt_lock               7e5498b5 f   libucrt:locks.obj
 0001:000088cc       ___acrt_uninitialize_locks 7e5498cc f   libucrt:locks.obj
 0001:000088fd       ___acrt_unlock             7e5498fd f   libucrt:locks.obj
 0001:00008914       __lock_locales             7e549914 f   libucrt:locks.obj
 0001:00008922       __unlock_locales           7e549922 f   libucrt:locks.obj
 0001:0000892b       _malloc                    7e54992b f   libucrt:malloc.obj
 0001:00008b8b       _setlocale                 7e549b8b f   libucrt:setlocale.obj
 0001:00008bc3       ___pctype_func             7e549bc3 f   libucrt:ctype.obj
 0001:00008be7       ___acrt_locale_get_ctype_array_value 7e549be7 f i libucrt:_ctype.obj
 0001:00008c09       ____lc_codepage_func       7e549c09 f   libucrt:initctype.obj
 0001:00008c2e       ____lc_locale_name_func    7e549c2e f   libucrt:initctype.obj
 0001:00008c55       ____mb_cur_max_func        7e549c55 f   libucrt:initctype.obj
 0001:00008c7a       ___acrt_locale_initialize_ctype 7e549c7a f   libucrt:initctype.obj
 0001:000090d7       _calloc                    7e54a0d7 f   libucrt:calloc.obj
 0001:000090e2       __wcsdup                   7e54a0e2 f   libucrt:wcsdup.obj
 0001:00009141       ___acrt_errno_from_os_error 7e54a141 f   libucrt:errno.obj
 0001:00009184       ___acrt_errno_map_os_error 7e54a184 f   libucrt:errno.obj
 0001:000091a7       ___acrt_errno_map_os_error_ptd 7e54a1a7 f   libucrt:errno.obj
 0001:000091cb       ___doserrno                7e54a1cb f   libucrt:errno.obj
 0001:000091de       __errno                    7e54a1de f   libucrt:errno.obj
 0001:000091f1       ??0_LocaleUpdate@@QAE@QAU__crt_locale_pointers@@@Z 7e54a1f1 f i libucrt:strtod.obj
 0001:00009273       ?unget@?$c_string_character_source@_W@__crt_strtox@@QAEX_W@Z 7e54a273 f i libucrt:strtod.obj
 0001:000092a1       ?validate@?$c_string_character_source@_W@__crt_strtox@@QBE_NXZ 7e54a2a1 f i libucrt:strtod.obj
 0001:000092c0       _strcspn                   7e54a2c0 f   libucrt:strcspn.obj
 0001:00009306       ??$is_overflow_condition@K@__crt_strtox@@YA_NIK@Z 7e54a306 f i libucrt:output.obj
 0001:00009340       ?update_locale_slow@__crt_cached_ptd_host@@AAEXXZ 7e54a340 f i libucrt:output.obj
 0001:0000939b       _abort                     7e54a39b f   libucrt:abort.obj
 0001:000093df       ___strncnt                 7e54a3df f   libucrt:strncnt.obj
 0001:000093fb       ??$__acrt_convert_wcs_mbs_cp@D_WV<lambda_62f6974d9771e494a5ea317cc32e971c>@@U__crt_win32_buffer_internal_dynamic_resizing@@@@YAHQBDAAV?$__crt_win32_buffer@_WU__crt_win32_buffer_internal_dynamic_resizing@@@@ABV<lambda_62f6974d9771e494a5ea317cc32e971c>@@I@Z 7e54a3fb f i libucrt:strftime.obj
 0001:000094ad       ??$__acrt_convert_wcs_mbs_cp@_WDV<lambda_0fec1a7b3f42a53036604e18c2d5e07e>@@U__crt_win32_buffer_no_resizing@@@@YAHQB_WAAV?$__crt_win32_buffer@DU__crt_win32_buffer_no_resizing@@@@ABV<lambda_0fec1a7b3f42a53036604e18c2d5e07e>@@I@Z 7e54a4ad f i libucrt:strftime.obj
 0001:0000956f       ??$__acrt_mbs_to_wcs_cp@U__crt_win32_buffer_internal_dynamic_resizing@@@@YAHQBDAAV?$__crt_win32_buffer@_WU__crt_win32_buffer_internal_dynamic_resizing@@@@I@Z 7e54a56f f i libucrt:strftime.obj
 0001:0000958c       ??R<lambda_0fec1a7b3f42a53036604e18c2d5e07e>@@QBEHIQB_WQADI@Z 7e54a58c f i libucrt:strftime.obj
 0001:0000958c       ??R<lambda_28bda7af82a03b66c1cb3803a755f95d>@@QBEHIQB_WQADI@Z 7e54a58c f i libucrt:argv_wildcards.obj
 0001:000095b0       ?_deallocate@?$__crt_win32_buffer@DU__crt_win32_buffer_internal_dynamic_resizing@@@@AAEXXZ 7e54a5b0 f i libucrt:argv_wildcards.obj
 0001:000095b0       ?_deallocate@?$__crt_win32_buffer@_WU__crt_win32_buffer_internal_dynamic_resizing@@@@AAEXXZ 7e54a5b0 f i libucrt:strftime.obj
 0001:000095ca       ?allocate@?$__crt_win32_buffer@DU__crt_win32_buffer_no_resizing@@@@QAEHI@Z 7e54a5ca f i libucrt:strftime.obj
 0001:000095f1       ?allocate@?$__crt_win32_buffer@_WU__crt_win32_buffer_internal_dynamic_resizing@@@@QAEHI@Z 7e54a5f1 f i libucrt:strftime.obj
 0001:00009630       ?allocate@__crt_win32_buffer_internal_dynamic_resizing@@SAHQAPAXIABV__crt_win32_buffer_empty_debug_info@@@Z 7e54a630 f i libucrt:strftime.obj
 0001:0000964f       ?set_to_nullptr@?$__crt_win32_buffer@DU__crt_win32_buffer_no_resizing@@@@QAEXXZ 7e54a64f f i libucrt:strftime.obj
 0001:00009663       ___acrt_initialize_new_handler 7e54a663 f   libucrt:new_handler.obj
 0001:00009672       __callnewh                 7e54a672 f   libucrt:new_handler.obj
 0001:0000969f       __query_new_handler        7e54a69f f   libucrt:new_handler.obj
 0001:000096fb       __initterm                 7e54a6fb f   libucrt:initterm.obj
 0001:00009726       __initterm_e               7e54a726 f   libucrt:initterm.obj
 0001:00009754       __seh_filter_dll           7e54a754 f   libucrt:exception_filter.obj
 0001:00009774       __seh_filter_exe           7e54a774 f   libucrt:exception_filter.obj
 0001:00009ba1       ___acrt_initialize_thread_local_exit_callback 7e54aba1 f   libucrt:exit.obj
 0001:00009bb0       __cexit                    7e54abb0 f   libucrt:exit.obj
 0001:00009bbf       __exit                     7e54abbf f   libucrt:exit.obj
 0001:00009bd5       __is_c_termination_complete 7e54abd5 f   libucrt:exit.obj
 0001:00009e8d       ___acrt_allocate_buffer_for_argv 7e54ae8d f   libucrt:argv_parsing.obj
 0001:00009edc       __configure_narrow_argv    7e54aedc f   libucrt:argv_parsing.obj
 0001:0000a2a8       ___dcrt_get_or_create_wide_environment_nolock 7e54b2a8 f   libucrt:environment_initialization.obj
 0001:0000a2ad       ___dcrt_uninitialize_environments_nolock 7e54b2ad f   libucrt:environment_initialization.obj
 0001:0000a2fe       __initialize_narrow_environment 7e54b2fe f   libucrt:environment_initialization.obj
 0001:0000a3b9       ??$__crt_fast_encode_pointer@P6AHXZ@@YAP6AHXZQ6AHXZ@Z 7e54b3b9 f i libucrt:onexit.obj
 0001:0000a3b9       ??$__crt_fast_encode_pointer@P6GHPA_WKJ@Z@@YAP6GHPA_WKJ@ZQ6GH0KJ@Z@Z 7e54b3b9 f i libucrt:winapi_thunks.obj
 0001:0000a3b9       ??$__crt_fast_encode_pointer@PAP6AXXZ@@YAPAP6AXXZQAP6AXXZ@Z 7e54b3b9 f i libucrt:onexit.obj
 0001:0000a3b9       ??$__crt_fast_encode_pointer@PAX@@YAPAXQAX@Z 7e54b3b9 f i libucrt:initialization.obj
 0001:0000a5b4       __crt_atexit               7e54b5b4 f   libucrt:onexit.obj
 0001:0000a5ca       __execute_onexit_table     7e54b5ca f   libucrt:onexit.obj
 0001:0000a608       __initialize_onexit_table  7e54b608 f   libucrt:onexit.obj
 0001:0000a631       __register_onexit_function 7e54b631 f   libucrt:onexit.obj
 0001:0000a6b4       ___acrt_uninitialize_command_line 7e54b6b4 f   libucrt:argv_data.obj
 0001:0000a762       ___acrt_initialize         7e54b762 f   libucrt:initialization.obj
 0001:0000a774       ___acrt_thread_attach      7e54b774 f   libucrt:initialization.obj
 0001:0000a77f       ___acrt_thread_detach      7e54b77f f   libucrt:initialization.obj
 0001:0000a787       ___acrt_uninitialize       7e54b787 f   libucrt:initialization.obj
 0001:0000a7b7       ___acrt_uninitialize_critical 7e54b7b7 f   libucrt:initialization.obj
 0001:0000a7c9       _terminate                 7e54b7c9 f   libucrt:terminate.obj
 0001:0000a805       _strcpy_s                  7e54b805 f   libucrt:strcpy_s.obj
 0001:0000a85f       ??$parse_integer@KV?$c_string_character_source@_W@__crt_strtox@@$00@__crt_strtox@@YAKAAV__crt_cached_ptd_host@@V?$c_string_character_source@_W@0@H_N@Z 7e54b85f f i libucrt:atox.obj
 0001:0000ae69       __wtol                     7e54be69 f   libucrt:atox.obj
 0001:0000aeb0       _strncmp                   7e54beb0 f   libucrt:strncmp.obj
 0001:0000af28       _wcsncmp                   7e54bf28 f   libucrt:wcsncmp.obj
 0001:0000b2a0       ___acrt_freeptd            7e54c2a0 f   libucrt:per_thread_data.obj
 0001:0000b2cc       ___acrt_getptd             7e54c2cc f   libucrt:per_thread_data.obj
 0001:0000b387       ___acrt_getptd_head        7e54c387 f   libucrt:per_thread_data.obj
 0001:0000b41d       ___acrt_getptd_noexit      7e54c41d f   libucrt:per_thread_data.obj
 0001:0000b4ce       ___acrt_getptd_noexit_explicit 7e54c4ce f   libucrt:per_thread_data.obj
 0001:0000b571       ___acrt_initialize_ptd     7e54c571 f   libucrt:per_thread_data.obj
 0001:0000b59d       ___acrt_uninitialize_ptd   7e54c59d f   libucrt:per_thread_data.obj
 0001:0000b6b7       ??0_expandlocale_locale_name_cache@@QAE@QA_WIQAU__crt_qualified_locale_data@@@Z 7e54c6b7 f i libucrt:wsetlocale.obj
 0001:0000b701       ??1_expandlocale_locale_name_cache@@QAE@XZ 7e54c701 f i libucrt:wsetlocale.obj
 0001:0000b899       ?commit_locale_name@_expandlocale_locale_name_cache@@QAEXQB_WI@Z 7e54c899 f i libucrt:wsetlocale.obj
 0001:0000b8dd       ?commit_locale_name_cache_already_updated@_expandlocale_locale_name_cache@@QAEXQB_WI@Z 7e54c8dd f i libucrt:wsetlocale.obj
 0001:0000b912       ___acrt_copy_locale_name   7e54c912 f   libucrt:wsetlocale.obj
 0001:0000b972       ___acrt_set_locale_changed 7e54c972 f   libucrt:wsetlocale.obj
 0001:0000b97d       ___acrt_uninitialize_locale 7e54c97d f   libucrt:wsetlocale.obj
 0001:0000b9a4       ___lc_lctowcs              7e54c9a4 f   libucrt:wsetlocale.obj
 0001:0000ba14       ___lc_wcstolc              7e54ca14 f   libucrt:wsetlocale.obj
 0001:0000bf59       __wcscats                  7e54cf59 f   libucrt:wsetlocale.obj
 0001:0000bf9a       __wsetlocale               7e54cf9a f   libucrt:wsetlocale.obj
 0001:0000cc7b       __free_base                7e54dc7b f   libucrt:free_base.obj
 0001:0000ccb5       _wcscpy_s                  7e54dcb5 f   libucrt:wcscpy_s.obj
 0001:0000cd19       __wcsnicoll                7e54dd19 f   libucrt:wcsnicol.obj
 0001:0000cd86       __wcsnicoll_l              7e54dd86 f   libucrt:wcsnicol.obj
 0001:0000d16a       ___acrt_AppPolicyGetProcessTerminationMethodInternal@4 7e54e16a f   libucrt:winapi_thunks.obj
 0001:0000d1aa       ___acrt_AreFileApisANSI@0  7e54e1aa f   libucrt:winapi_thunks.obj
 0001:0000d1c9       ___acrt_CompareStringEx@36 7e54e1c9 f   libucrt:winapi_thunks.obj
 0001:0000d226       ___acrt_EnumSystemLocalesEx@16 7e54e226 f   libucrt:winapi_thunks.obj
 0001:0000d27a       ___acrt_FlsAlloc@4         7e54e27a f   libucrt:winapi_thunks.obj
 0001:0000d2b9       ___acrt_FlsFree@4          7e54e2b9 f   libucrt:winapi_thunks.obj
 0001:0000d2f8       ___acrt_FlsGetValue@4      7e54e2f8 f   libucrt:winapi_thunks.obj
 0001:0000d337       ___acrt_FlsSetValue@8      7e54e337 f   libucrt:winapi_thunks.obj
 0001:0000d379       ___acrt_GetLocaleInfoEx@16 7e54e379 f   libucrt:winapi_thunks.obj
 0001:0000d3b8       ___acrt_GetUserDefaultLocaleName@8 7e54e3b8 f   libucrt:winapi_thunks.obj
 0001:0000d3f4       ___acrt_InitializeCriticalSectionEx@12 7e54e3f4 f   libucrt:winapi_thunks.obj
 0001:0000d43f       ___acrt_IsValidLocaleName@4 7e54e43f f   libucrt:winapi_thunks.obj
 0001:0000d477       ___acrt_LCIDToLocaleName@16 7e54e477 f   libucrt:winapi_thunks.obj
 0001:0000d4b6       ___acrt_LCMapStringEx@36   7e54e4b6 f   libucrt:winapi_thunks.obj
 0001:0000d513       ___acrt_LocaleNameToLCID@8 7e54e513 f   libucrt:winapi_thunks.obj
 0001:0000d544       ___acrt_can_use_vista_locale_apis 7e54e544 f   libucrt:winapi_thunks.obj
 0001:0000d54f       ___acrt_eagerly_load_locale_apis 7e54e54f f   libucrt:winapi_thunks.obj
 0001:0000d586       ___acrt_initialize_winapi_thunks 7e54e586 f   libucrt:winapi_thunks.obj
 0001:0000d59a       ___acrt_uninitialize_winapi_thunks 7e54e59a f   libucrt:winapi_thunks.obj
 0001:0000d5d0       __malloc_base              7e54e5d0 f   libucrt:malloc_base.obj
 0001:0000d61e       __calloc_base              7e54e61e f   libucrt:calloc_base.obj
 0001:0000d926       _mbstowcs_s                7e54e926 f   libucrt:mbstowcs.obj
 0001:0000dce8       __wcstombs_s_l             7e54ece8 f   libucrt:wcstombs.obj
 0001:0000dd26       ___acrt_update_locale_info 7e54ed26 f   libucrt:locale_update.obj
 0001:0000dd53       ___acrt_update_locale_info_explicit 7e54ed53 f   libucrt:locale_update.obj
 0001:0000dd84       ___acrt_update_multibyte_info 7e54ed84 f   libucrt:locale_update.obj
 0001:0000ddb1       ___acrt_update_multibyte_info_explicit 7e54edb1 f   libucrt:locale_update.obj
 0001:0000dec9       ___acrt_GetLocaleInfoA     7e54eec9 f   libucrt:getlocaleinfoa.obj
 0001:0000e079       ___acrt_GetStringTypeA     7e54f079 f   libucrt:getstringtypea.obj
 0001:0000e370       ___acrt_LCMapStringA       7e54f370 f   libucrt:lcmapstringa.obj
 0001:0000e3b9       __errcode                  7e54f3b9 f   libucrt:fpexcept.obj
 0001:0000e3ed       __except1                  7e54f3ed f   libucrt:fpexcept.obj
 0001:0000e4bb       __handle_exc               7e54f4bb f   libucrt:fpexcept.obj
 0001:0000e734       __raise_exc                7e54f734 f   libucrt:fpexcept.obj
 0001:0000e757       __raise_exc_ex             7e54f757 f   libucrt:fpexcept.obj
 0001:0000ea4d       __set_errno_from_matherr   7e54fa4d f   libucrt:fpexcept.obj
 0001:0000ea7c       __umatherr                 7e54fa7c f   libucrt:fpexcept.obj
 0001:0000eb1c       __decomp                   7e54fb1c f   libucrt:util.obj
 0001:0000ebee       __set_exp                  7e54fbee f   libucrt:util.obj
 0001:0000ec1b       __sptype                   7e54fc1b f   libucrt:util.obj
 0001:0000ec79       __clrfp                    7e54fc79 f   libucrt:fpctrl.obj
 0001:0000ec8a       __ctrlfp                   7e54fc8a f   libucrt:fpctrl.obj
 0001:0000ecb4       __set_statfp               7e54fcb4 f   libucrt:fpctrl.obj
 0001:0000ed0d       __statfp                   7e54fd0d f   libucrt:fpctrl.obj
 0001:0000ed1d       __realloc_base             7e54fd1d f   libucrt:realloc_base.obj
 0001:0000ed86       _iswctype                  7e54fd86 f   libucrt:iswctype.obj
 0001:0000edef       _fegetround                7e54fdef f   libucrt:fegetround.obj
 0001:0000edfc       __mbtowc_internal          7e54fdfc f   libucrt:mbtowc.obj
 0001:0000ef2f       __fileno                   7e54ff2f f   libucrt:fileno.obj
 0001:0000ef56       ___acrt_initialize_stdio   7e54ff56 f   libucrt:_file.obj
 0001:0000f01e       ___acrt_uninitialize_stdio 7e55001e f   libucrt:_file.obj
 0001:0000f06a       __lock_file                7e55006a f   libucrt:_file.obj
 0001:0000f07e       __unlock_file              7e55007e f   libucrt:_file.obj
 0001:0000f1f8       ___acrt_initialize_lowio   7e5501f8 f   libucrt:ioinit.obj
 0001:0000f258       ___acrt_uninitialize_lowio 7e550258 f   libucrt:ioinit.obj
 0001:0000f352       ___acrt_get_sigabrt_handler 7e550352 f   libucrt:signal.obj
 0001:0000f379       ___acrt_initialize_signal_handlers 7e550379 f   libucrt:signal.obj
 0001:0000f397       _raise                     7e550397 f   libucrt:signal.obj
 0001:0000f58a       ___acrt_MultiByteToWideChar 7e55058a f   libucrt:multibytetowidechar.obj
 0001:0000f606       ___acrt_WideCharToMultiByte 7e550606 f   libucrt:widechartomultibyte.obj
 0001:0000f6bd       ___ascii_wcsicmp           7e5506bd f   libucrt:wcsicmp.obj
 0001:0000f6fa       __towlower_internal        7e5506fa f i libucrt:wcsicmp.obj
 0001:0000f739       __wcsicmp                  7e550739 f   libucrt:wcsicmp.obj
 0001:0000f782       __wcsicmp_l                7e550782 f   libucrt:wcsicmp.obj
 0001:0000f83a       ___acrt_initialize_timeset 7e55083a f   libucrt:timeset.obj
 0001:0000f86f       ?__acrt_get_utf8_acp_compatibility_codepage@@YAIXZ 7e55086f f i libucrt:tzset.obj
 0001:0000f8ae       ___acrt_get_process_end_policy 7e5508ae f   libucrt:win_policies.obj
 0001:0000f8f7       ??$__acrt_convert_wcs_mbs_cp@_WDV<lambda_28bda7af82a03b66c1cb3803a755f95d>@@U__crt_win32_buffer_internal_dynamic_resizing@@@@YAHQB_WAAV?$__crt_win32_buffer@DU__crt_win32_buffer_internal_dynamic_resizing@@@@ABV<lambda_28bda7af82a03b66c1cb3803a755f95d>@@I@Z 7e5508f7 f i libucrt:argv_wildcards.obj
 0001:0000fe99       ?allocate@?$__crt_win32_buffer@DU__crt_win32_buffer_internal_dynamic_resizing@@@@QAEHI@Z 7e550e99 f i libucrt:argv_wildcards.obj
 0001:0000ff5c       ___acrt_expand_narrow_argv_wildcards 7e550f5c f   libucrt:argv_wildcards.obj
 0001:0000ff67       ___acrt_GetModuleFileNameA 7e550f67 f   libucrt:getmodulefilenamea.obj
 0001:0001058b       ___acrt_initialize_multibyte 7e55158b f   libucrt:mbctype.obj
 0001:000105d3       ___acrt_update_thread_multibyte_data 7e5515d3 f   libucrt:mbctype.obj
 0001:000105e6       __setmbcp_nolock           7e5515e6 f   libucrt:mbctype.obj
 0001:000108bf       __ismbblead                7e5518bf f   libucrt:ismbbyte.obj
 0001:000108d7       ___acrt_initialize_command_line 7e5518d7 f   libucrt:argv_data.obj
 0001:00010927       ___dcrt_get_narrow_environment_from_os 7e551927 f   libucrt:get_environment_from_os.obj
 0001:000109c7       ___dcrt_get_wide_environment_from_os 7e5519c7 f   libucrt:get_environment_from_os.obj
 0001:00010dc4       ___dcrt_set_variable_in_wide_environment_nolock 7e551dc4 f   libucrt:setenv.obj
 0001:00010dcf       __recalloc_base            7e551dcf f   libucrt:recalloc.obj
 0001:00010e3c       ___acrt_initialize_heap    7e551e3c f   libucrt:heap_handle.obj
 0001:00010e4d       ___acrt_uninitialize_heap  7e551e4d f   libucrt:heap_handle.obj
 0001:00010e57       ___acrt_execute_initializers 7e551e57 f   libucrt:shared_initialization.obj
 0001:00010ebf       ___acrt_execute_uninitializers 7e551ebf f   libucrt:shared_initialization.obj
 0001:00010ef0       ___acrt_has_user_matherr   7e551ef0 f   libucrt:matherr.obj
 0001:00010f08       ___acrt_initialize_user_matherr 7e551f08 f   libucrt:matherr.obj
 0001:00010f17       ___acrt_invoke_user_matherr 7e551f17 f   libucrt:matherr.obj
 0001:00011126       ___acrt_stdio_flush_nolock 7e552126 f   libucrt:fflush.obj
 0001:0001118f       __fflush_nolock            7e55218f f   libucrt:fflush.obj
 0001:000111f4       __flushall                 7e5521f4 f   libucrt:fflush.obj
 0001:000111fd       ___acrt_add_locale_ref     7e5521fd f   libucrt:locale_refcounting.obj
 0001:0001127a       ___acrt_free_locale        7e55227a f   libucrt:locale_refcounting.obj
 0001:000113c2       ___acrt_locale_add_lc_time_reference 7e5523c2 f   libucrt:locale_refcounting.obj
 0001:000113eb       ___acrt_locale_free_lc_time_if_unreferenced 7e5523eb f   libucrt:locale_refcounting.obj
 0001:0001141c       ___acrt_locale_release_lc_time_reference 7e55241c f   libucrt:locale_refcounting.obj
 0001:00011445       ___acrt_release_locale_ref 7e552445 f   libucrt:locale_refcounting.obj
 0001:000114c6       ___acrt_update_thread_locale_data 7e5524c6 f   libucrt:locale_refcounting.obj
 0001:00011547       __updatetlocinfoEx_nolock  7e552547 f   libucrt:locale_refcounting.obj
 0001:00011597       ___acrt_locale_free_monetary 7e552597 f   libucrt:initmon.obj
 0001:00011695       ___acrt_locale_initialize_monetary 7e552695 f   libucrt:initmon.obj
 0001:00011a4b       ___acrt_locale_free_numeric 7e552a4b f   libucrt:initnum.obj
 0001:00011ab4       ___acrt_locale_initialize_numeric 7e552ab4 f   libucrt:initnum.obj
 0001:00011f66       ___acrt_locale_free_time   7e552f66 f   libucrt:inittime.obj
 0001:0001204a       ___acrt_locale_initialize_time 7e55304a f   libucrt:inittime.obj
 0001:0001213d       _wcscat_s                  7e55313d f   libucrt:wcscat_s.obj
 0001:00012235       _wcsncat_s                 7e553235 f   libucrt:wcsncat_s.obj
 0001:0001230e       _wcsncpy_s                 7e55330e f   libucrt:wcsncpy_s.obj
 0001:00012319       _wcscspn                   7e553319 f   libucrt:wcscspn.obj
 0001:00012372       _wcspbrk                   7e553372 f   libucrt:wcspbrk.obj
 0001:00012abc       ___acrt_get_qualified_locale 7e553abc f   libucrt:get_qualified_locale.obj
 0001:00013420       ___acrt_get_qualified_locale_downlevel 7e554420 f   libucrt:getqloc_downlevel.obj
 0001:00013615       ___acrt_CompareStringW     7e554615 f   libucrt:comparestringw.obj
 0001:0001367a       ___ascii_wcsnicmp          7e55467a f   libucrt:wcsnicmp.obj
 0001:000136c9       __wcsnicmp                 7e5546c9 f   libucrt:wcsnicmp.obj
 0001:00013715       __wcsnicmp_l               7e554715 f   libucrt:wcsnicmp.obj
 0001:00013838       ___acrt_DownlevelLCIDToLocaleName 7e554838 f   libucrt:lcidtoname_downlevel.obj
 0001:000138db       ___acrt_DownlevelLocaleNameToLCID 7e5548db f   libucrt:lcidtoname_downlevel.obj
 0001:00013907       __query_new_mode           7e554907 f   libucrt:new_mode.obj
 0001:0001393a       ?__mbrtowc_utf8@__crt_mbstring@@YAIPA_WPBDIPAU_Mbstatet@@AAV__crt_cached_ptd_host@@@Z 7e55493a f   libucrt:mbrtowc.obj
 0001:0001397d       ?__mbsrtowcs_utf8@__crt_mbstring@@YAIPA_WPAPBDIPAU_Mbstatet@@AAV__crt_cached_ptd_host@@@Z 7e55497d f   libucrt:mbrtowc.obj
 0001:00013a85       ?__wcsrtombs_utf8@__crt_mbstring@@YAIPADPAPB_WIPAU_Mbstatet@@AAV__crt_cached_ptd_host@@@Z 7e554a85 f   libucrt:wcrtomb.obj
 0001:00013c48       _strncpy_s                 7e554c48 f   libucrt:strncpy_s.obj
 0001:00013c53       ___acrt_GetStringTypeW     7e554c53 f   libucrt:getstringtypew.obj
 0001:00013dc9       ___acrt_fenv_get_common_round_control 7e554dc9 f   libucrt:_fenvutils.obj
 0001:00013deb       ___acrt_fenv_get_control   7e554deb f   libucrt:_fenvutils.obj
 0001:00013e6b       ?__c32rtomb_utf8@__crt_mbstring@@YAIPAD_UPAU_Mbstatet@@AAV__crt_cached_ptd_host@@@Z 7e554e6b f   libucrt:c32rtomb.obj
 0001:00013f1b       __fcloseall                7e554f1b f   libucrt:closeall.obj
 0001:00013fc6       ___acrt_stdio_free_buffer_nolock 7e554fc6 f   libucrt:_freebuf.obj
 0001:00014006       __isatty                   7e555006 f   libucrt:isatty.obj
 0001:0001405c       ___acrt_lowio_create_handle_array 7e55505c f   libucrt:osfinfo.obj
 0001:000140d7       ___acrt_lowio_destroy_handle_array 7e5550d7 f   libucrt:osfinfo.obj
 0001:0001410c       ___acrt_lowio_ensure_fh_exists 7e55510c f   libucrt:osfinfo.obj
 0001:000141aa       ___acrt_lowio_lock_fh      7e5551aa f   libucrt:osfinfo.obj
 0001:000141cd       ___acrt_lowio_unlock_fh    7e5551cd f   libucrt:osfinfo.obj
 0001:000141f0       __free_osfhnd              7e5551f0 f   libucrt:osfinfo.obj
 0001:00014281       __get_osfhandle            7e555281 f   libucrt:osfinfo.obj
 0001:000142eb       __towlower_l               7e5552eb f   libucrt:towlower.obj
 0001:000143d0       _qsort                     7e5553d0 f   libucrt:qsort.obj
 0001:000148c0       _strpbrk                   7e5558c0 f   libucrt:strpbrk.obj
 0001:00014900       __mbsdec                   7e555900 f   libucrt:mbsdec.obj
 0001:00014917       __mbsdec_l                 7e555917 f   libucrt:mbsdec.obj
 0001:000149b3       __msize_base               7e5559b3 f   libucrt:msize.obj
 0001:00014a88       __commit                   7e555a88 f   libucrt:commit.obj
 0001:000152b3       __write_internal           7e5562b3 f   libucrt:write.obj
 0001:000153bb       __write_nolock             7e5563bb f   libucrt:write.obj
 0001:000156e0       __itow_s                   7e5566e0 f   libucrt:xtoa.obj
 0001:00015720       ___ascii_strnicmp          7e556720 f   libucrt:_strnicm.obj
 0001:00015781       ?__mbrtoc32_utf8@__crt_mbstring@@YAIPA_UPBDIPAU_Mbstatet@@AAV__crt_cached_ptd_host@@@Z 7e556781 f   libucrt:mbrtoc32.obj
 0001:0001593f       ?__c16rtomb_utf8@__crt_mbstring@@YAIPAD_SPAU_Mbstatet@@AAV__crt_cached_ptd_host@@@Z 7e55693f f   libucrt:c16rtomb.obj
 0001:000159f0       __CIlog10                  7e5569f0 f   libucrt:log10_impl.obj
 0001:00015a2b       __CIlog10_default          7e556a2b f   libucrt:log10_impl.obj
 0001:00015a3f       __log10_default            7e556a3f     libucrt:log10_impl.obj
 0001:00015b00       _ceil                      7e556b00 f   libucrt:ceil_pentium4.obj
 0001:00015b40       __ceil_pentium4            7e556b40 f   libucrt:ceil_pentium4.obj
 0001:00015c1d       ?reset_and_return@__crt_mbstring@@YAIIPAU_Mbstatet@@@Z 7e556c1d f   libucrt:common_utf8.obj
 0001:00015c31       ?return_illegal_sequence@__crt_mbstring@@YAIPAU_Mbstatet@@AAV__crt_cached_ptd_host@@@Z 7e556c31 f   libucrt:common_utf8.obj
 0001:00015d78       _fclose                    7e556d78 f   libucrt:fclose.obj
 0001:00015e2b       __lseeki64_nolock_internal 7e556e2b f   libucrt:lseek.obj
 0001:00015e49       __query_app_type           7e556e49 f   libucrt:report_runtime_error.obj
 0001:00015e4f       ___acrt_LCMapStringW       7e556e4f f   libucrt:lcmapstringw.obj
 0001:00015e8d       __putwch_nolock            7e556e8d f   libucrt:putwch.obj
 0001:00015ebf       ___acrt_initialize_sse2    7e556ebf f   libucrt:mathfcns.obj
 0001:00015ed0       __CIlog10_pentium4         7e556ed0 f   libucrt:log10_pentium4.obj
 0001:00015ee8       __log10_pentium4           7e556ee8     libucrt:log10_pentium4.obj
 0001:00016180       __fFEXP                    7e557180 f   libucrt:87tran.obj
 0001:000161d7       __rtinfpopse               7e5571d7     libucrt:87tran.obj
 0001:000161d9       __rtinfnpopse              7e5571d9     libucrt:87tran.obj
 0001:000161e9       __fFLN                     7e5571e9     libucrt:87tran.obj
 0001:0001629e       __rtinfpop                 7e55729e     libucrt:87tran.obj
 0001:000162a0       __rtinfnpop                7e5572a0     libucrt:87tran.obj
 0001:000162b0       __rtforexpinf              7e5572b0 f   libucrt:87tran.obj
 0001:000162bd       __ffexpm1                  7e5572bd     libucrt:87tran.obj
 0001:00016370       __trandisp1                7e557370 f   libucrt:87disp.obj
 0001:000163e5       __trandisp2                7e5573e5 f   libucrt:87disp.obj
 0001:0001647f       __rttospopde               7e55747f     libucrt:87disp.obj
 0001:00016484       __rttospop                 7e557484     libucrt:87disp.obj
 0001:00016490       __rtnospop                 7e557490 f   libucrt:87disp.obj
 0001:000164a0       __rttosnpop                7e5574a0 f   libucrt:87disp.obj
 0001:000164a1       __rtnospopde               7e5574a1     libucrt:87disp.obj
 0001:000164a8       __rtzeropop                7e5574a8     libucrt:87disp.obj
 0001:000164aa       __rtzeronpop               7e5574aa     libucrt:87disp.obj
 0001:000164b0       __rtzerospop               7e5574b0 f   libucrt:87disp.obj
 0001:000164bd       __rtonepop                 7e5574bd     libucrt:87disp.obj
 0001:000164c0       __rtonenpop                7e5574c0 f   libucrt:87disp.obj
 0001:000164d0       __tosnan1                  7e5574d0 f   libucrt:87disp.obj
 0001:00016500       __nosnan2                  7e557500 f   libucrt:87disp.obj
 0001:00016510       __tosnan2                  7e557510 f   libucrt:87disp.obj
 0001:00016540       __nan2                     7e557540 f   libucrt:87disp.obj
 0001:00016580       __rtindfpop                7e557580 f   libucrt:87disp.obj
 0001:00016582       __rtindfnpop               7e557582     libucrt:87disp.obj
 0001:00016593       __rttosnpopde              7e557593     libucrt:87disp.obj
 0001:000165a0       __rtatan2inf               7e5575a0 f   libucrt:87disp.obj
 0001:000165bd       __rtchsifneg               7e5575bd     libucrt:87disp.obj
 0001:000165d0       __twoToTOS                 7e5575d0 f   libucrt:common.obj
 0001:000165e5       __load_CW                  7e5575e5 f   libucrt:common.obj
 0001:000165fc       __convertTOStoQNaN         7e5575fc f   libucrt:common.obj
 0001:00016615       __fload_withFB             7e557615 f   libucrt:common.obj
 0001:00016658       __checkTOS_withFB          7e557658 f   libucrt:common.obj
 0001:0001666e       __fast_exit                7e55766e f   libucrt:common.obj
 0001:0001667b       __math_exit                7e55767b f   libucrt:common.obj
 0001:000166a5       __check_overflow_exit      7e5576a5 f   libucrt:common.obj
 0001:000166b9       __check_range_exit         7e5576b9 f   libucrt:common.obj
 0001:00016760       __startTwoArgErrorHandling 7e557760 f   libucrt:genexcep.obj
 0001:00016777       __startOneArgErrorHandling 7e557777 f   libucrt:genexcep.obj
 0001:000167b3       ___libm_error_support      7e5577b3 f   libucrt:libm_error.obj
 0001:000169a7       __ceil_default             7e5579a7 f   libucrt:ceil.obj
 0001:00016aed       __close_internal           7e557aed f   libucrt:close.obj
 0001:00016b90       __close_nolock_internal    7e557b90 f   libucrt:close.obj
 0001:00016c30       ?__acrt_stdio_free_stream@@YAXV__crt_stdio_stream@@@Z 7e557c30 f   libucrt:stream.obj
 0001:00016c8a       ___dcrt_lowio_ensure_console_output_initialized 7e557c8a f   libucrt:initcon.obj
 0001:00016ca9       ___dcrt_terminate_console_output 7e557ca9 f   libucrt:initcon.obj
 0001:00016cc0       ___dcrt_write_console      7e557cc0 f   libucrt:initcon.obj
 0001:00016d15       __d_inttype                7e557d15 f   libucrt:powhlp.obj
 0001:00016d7d       __powhlp                   7e557d7d f   libucrt:powhlp.obj
 0001:00016ea8       __87except                 7e557ea8 f   libucrt:87except.obj
 0001:00016fb2       __frnd                     7e557fb2 f   libucrt:frnd.obj
 0001:00016fc6       __fpclass                  7e557fc6 f   libucrt:ieeemisc.obj
 0001:00017070       __FindPESection            7e558070 f   LIBCMT:pesect.obj
 0001:000170c0       __IsNonwritableInCurrentImage 7e5580c0 f   LIBCMT:pesect.obj
 0001:00017180       __ValidateImageBase        7e558180 f   LIBCMT:pesect.obj
 0001:000171c0       _wcschr                    7e5581c0 f   libvcruntime:wcschr.obj
 0001:00017270       __filter_x86_sse2_floating_point_exception 7e558270 f   LIBCMT:x86_exception_filter.obj
 0001:00017270       __filter_x86_sse2_floating_point_exception_default 7e558270 f   LIBCMT:x86_exception_filter.obj
 0002:00000000       __imp__GetEnvironmentStringsW@0 7e559000     kernel32:KERNEL32.dll
 0002:00000004       __imp__CreateFileW@28      7e559004     kernel32:KERNEL32.dll
 0002:00000008       __imp__SetFilePointer@16   7e559008     kernel32:KERNEL32.dll
 0002:0000000c       __imp__WriteFile@20        7e55900c     kernel32:KERNEL32.dll
 0002:00000010       __imp__CloseHandle@4       7e559010     kernel32:KERNEL32.dll
 0002:00000014       __imp__ResumeThread@4      7e559014     kernel32:KERNEL32.dll
 0002:00000018       __imp__CreateProcessW@40   7e559018     kernel32:KERNEL32.dll
 0002:0000001c       __imp__GetThreadContext@8  7e55901c     kernel32:KERNEL32.dll
 0002:00000020       __imp__VirtualProtectEx@20 7e559020     kernel32:KERNEL32.dll
 0002:00000024       __imp__ReadProcessMemory@20 7e559024     kernel32:KERNEL32.dll
 0002:00000028       __imp__WriteProcessMemory@20 7e559028     kernel32:KERNEL32.dll
 0002:0000002c       __imp__GetConsoleMode@8    7e55902c     kernel32:KERNEL32.dll
 0002:00000030       __imp__WideCharToMultiByte@32 7e559030     kernel32:KERNEL32.dll
 0002:00000034       __imp__MultiByteToWideChar@24 7e559034     kernel32:KERNEL32.dll
 0002:00000038       __imp__GetStringTypeW@16   7e559038     kernel32:KERNEL32.dll
 0002:0000003c       __imp__EnterCriticalSection@4 7e55903c     kernel32:KERNEL32.dll
 0002:00000040       __imp__LeaveCriticalSection@4 7e559040     kernel32:KERNEL32.dll
 0002:00000044       __imp__InitializeCriticalSectionEx@12 7e559044     kernel32:KERNEL32.dll
 0002:00000048       __imp__DeleteCriticalSection@4 7e559048     kernel32:KERNEL32.dll
 0002:0000004c       __imp__EncodePointer@4     7e55904c     kernel32:KERNEL32.dll
 0002:00000050       __imp__DecodePointer@4     7e559050     kernel32:KERNEL32.dll
 0002:00000054       __imp__LCMapStringEx@36    7e559054     kernel32:KERNEL32.dll
 0002:00000058       __imp__GetCPInfo@8         7e559058     kernel32:KERNEL32.dll
 0002:0000005c       __imp__IsProcessorFeaturePresent@4 7e55905c     kernel32:KERNEL32.dll
 0002:00000060       __imp__QueryPerformanceCounter@4 7e559060     kernel32:KERNEL32.dll
 0002:00000064       __imp__GetCurrentProcessId@0 7e559064     kernel32:KERNEL32.dll
 0002:00000068       __imp__GetCurrentThreadId@0 7e559068     kernel32:KERNEL32.dll
 0002:0000006c       __imp__GetSystemTimeAsFileTime@4 7e55906c     kernel32:KERNEL32.dll
 0002:00000070       __imp__InitializeSListHead@4 7e559070     kernel32:KERNEL32.dll
 0002:00000074       __imp__IsDebuggerPresent@0 7e559074     kernel32:KERNEL32.dll
 0002:00000078       __imp__UnhandledExceptionFilter@4 7e559078     kernel32:KERNEL32.dll
 0002:0000007c       __imp__SetUnhandledExceptionFilter@4 7e55907c     kernel32:KERNEL32.dll
 0002:00000080       __imp__GetStartupInfoW@4   7e559080     kernel32:KERNEL32.dll
 0002:00000084       __imp__GetModuleHandleW@4  7e559084     kernel32:KERNEL32.dll
 0002:00000088       __imp__GetCurrentProcess@0 7e559088     kernel32:KERNEL32.dll
 0002:0000008c       __imp__TerminateProcess@8  7e55908c     kernel32:KERNEL32.dll
 0002:00000090       __imp__RaiseException@16   7e559090     kernel32:KERNEL32.dll
 0002:00000094       __imp__RtlUnwind@16        7e559094     kernel32:KERNEL32.dll
 0002:00000098       __imp__InterlockedFlushSList@4 7e559098     kernel32:KERNEL32.dll
 0002:0000009c       __imp__GetLastError@0      7e55909c     kernel32:KERNEL32.dll
 0002:000000a0       __imp__SetLastError@4      7e5590a0     kernel32:KERNEL32.dll
 0002:000000a4       __imp__InitializeCriticalSectionAndSpinCount@8 7e5590a4     kernel32:KERNEL32.dll
 0002:000000a8       __imp__TlsAlloc@0          7e5590a8     kernel32:KERNEL32.dll
 0002:000000ac       __imp__TlsGetValue@4       7e5590ac     kernel32:KERNEL32.dll
 0002:000000b0       __imp__TlsSetValue@8       7e5590b0     kernel32:KERNEL32.dll
 0002:000000b4       __imp__TlsFree@4           7e5590b4     kernel32:KERNEL32.dll
 0002:000000b8       __imp__FreeLibrary@4       7e5590b8     kernel32:KERNEL32.dll
 0002:000000bc       __imp__GetProcAddress@8    7e5590bc     kernel32:KERNEL32.dll
 0002:000000c0       __imp__LoadLibraryExW@12   7e5590c0     kernel32:KERNEL32.dll
 0002:000000c4       __imp__ExitProcess@4       7e5590c4     kernel32:KERNEL32.dll
 0002:000000c8       __imp__GetModuleHandleExW@12 7e5590c8     kernel32:KERNEL32.dll
 0002:000000cc       __imp__GetModuleFileNameW@12 7e5590cc     kernel32:KERNEL32.dll
 0002:000000d0       __imp__HeapFree@12         7e5590d0     kernel32:KERNEL32.dll
 0002:000000d4       __imp__CompareStringW@24   7e5590d4     kernel32:KERNEL32.dll
 0002:000000d8       __imp__LCMapStringW@24     7e5590d8     kernel32:KERNEL32.dll
 0002:000000dc       __imp__GetLocaleInfoW@16   7e5590dc     kernel32:KERNEL32.dll
 0002:000000e0       __imp__IsValidLocale@8     7e5590e0     kernel32:KERNEL32.dll
 0002:000000e4       __imp__GetUserDefaultLCID@0 7e5590e4     kernel32:KERNEL32.dll
 0002:000000e8       __imp__EnumSystemLocalesW@8 7e5590e8     kernel32:KERNEL32.dll
 0002:000000ec       __imp__HeapAlloc@12        7e5590ec     kernel32:KERNEL32.dll
 0002:000000f0       __imp__HeapReAlloc@16      7e5590f0     kernel32:KERNEL32.dll
 0002:000000f4       __imp__GetStdHandle@4      7e5590f4     kernel32:KERNEL32.dll
 0002:000000f8       __imp__GetFileType@4       7e5590f8     kernel32:KERNEL32.dll
 0002:000000fc       __imp__FindClose@4         7e5590fc     kernel32:KERNEL32.dll
 0002:00000100       __imp__FindFirstFileExW@24 7e559100     kernel32:KERNEL32.dll
 0002:00000104       __imp__FindNextFileW@8     7e559104     kernel32:KERNEL32.dll
 0002:00000108       __imp__IsValidCodePage@4   7e559108     kernel32:KERNEL32.dll
 0002:0000010c       __imp__GetACP@0            7e55910c     kernel32:KERNEL32.dll
 0002:00000110       __imp__GetOEMCP@0          7e559110     kernel32:KERNEL32.dll
 0002:00000114       __imp__GetCommandLineA@0   7e559114     kernel32:KERNEL32.dll
 0002:00000118       __imp__GetCommandLineW@0   7e559118     kernel32:KERNEL32.dll
 0002:0000011c       __imp__FreeEnvironmentStringsW@4 7e55911c     kernel32:KERNEL32.dll
 0002:00000120       __imp__SetEnvironmentVariableW@8 7e559120     kernel32:KERNEL32.dll
 0002:00000124       __imp__GetProcessHeap@0    7e559124     kernel32:KERNEL32.dll
 0002:00000128       __imp__SetFilePointerEx@20 7e559128     kernel32:KERNEL32.dll
 0002:0000012c       __imp__SetStdHandle@8      7e55912c     kernel32:KERNEL32.dll
 0002:00000130       __imp__HeapSize@12         7e559130     kernel32:KERNEL32.dll
 0002:00000134       __imp__FlushFileBuffers@4  7e559134     kernel32:KERNEL32.dll
 0002:00000138       __imp__GetConsoleOutputCP@0 7e559138     kernel32:KERNEL32.dll
 0002:0000013c       __imp__WriteConsoleW@20    7e55913c     kernel32:KERNEL32.dll
 0002:00000140       \177KERNEL32_NULL_THUNK_DATA 7e559140     kernel32:KERNEL32.dll
 0002:00000144       __imp__wvsprintfA@12       7e559144     user32:USER32.dll
 0002:00000148       __imp__MessageBoxA@16      7e559148     user32:USER32.dll
 0002:0000014c       \177USER32_NULL_THUNK_DATA 7e55914c     user32:USER32.dll
 0002:00000150       ___guard_check_icall_fptr  7e559150     LIBCMT:guard_support.obj
 0002:00000154       ___castguard_check_failure_os_handled_fptr 7e559154     LIBCMT:guard_support.obj
 0002:00000158       ___xc_a                    7e559158     LIBCMT:initializers.obj
 0002:00000170       ___xc_z                    7e559170     LIBCMT:initializers.obj
 0002:00000174       ___xi_a                    7e559174     LIBCMT:initializers.obj
 0002:00000178       ___acrt_stdio_initializer  7e559178     libucrt:stdio_initializer.obj
 0002:0000017c       ___acrt_timeset_initializer 7e55917c     libucrt:timeset_initializer.obj
 0002:00000180       ___acrt_multibyte_initializer 7e559180     libucrt:multibyte_initializer.obj
 0002:00000184       ___acrt_tran_sse2_initializer 7e559184     libucrt:sse2_initializer.obj
 0002:00000188       ___xi_z                    7e559188     LIBCMT:initializers.obj
 0002:0000018c       ___xp_a                    7e55918c     LIBCMT:initializers.obj
 0002:00000190       ___acrt_locale_terminator  7e559190     libucrt:locale_initializer.obj
 0002:00000194       ___dcrt_console_output_terminator 7e559194     libucrt:console_output_initializer.obj
 0002:00000198       ___acrt_stdio_terminator   7e559198     libucrt:stdio_initializer.obj
 0002:0000019c       ___xp_z                    7e55919c     LIBCMT:initializers.obj
 0002:000001a0       ___xt_a                    7e5591a0     LIBCMT:initializers.obj
 0002:000001a4       ___xt_z                    7e5591a4     LIBCMT:initializers.obj
 0002:000001c8       ??_7exception@std@@6B@     7e5591c8     w3l.obj
 0002:000001d0       ??_C@_0BC@EOODALEL@Unknown?5exception@ 7e5591d0     w3l.obj
 0002:000001e8       ??_7bad_alloc@std@@6B@     7e5591e8     w3l.obj
 0002:000001f4       ??_7bad_array_new_length@std@@6B@ 7e5591f4     w3l.obj
 0002:000001fc       ??_C@_0BF@KINCDENJ@bad?5array?5new?5length@ 7e5591fc     w3l.obj
 0002:00000214       ??_C@_0BA@JFNIOLAK@string?5too?5long@ 7e559214     w3l.obj
 0002:00000228       ??_7runtime_error@std@@6B@ 7e559228     w3l.obj
 0002:00000234       ??_7_System_error@std@@6B@ 7e559234     w3l.obj
 0002:0000023c       ??_C@_02LMMGGCAJ@?3?5@     7e55923c     w3l.obj
 0002:00000244       ??_7system_error@std@@6B@  7e559244     w3l.obj
 0002:00000250       ??_7_Iostream_error_category2@std@@6B@ 7e559250     w3l.obj
 0002:00000268       ??_C@_08LLGCOLLL@iostream@ 7e559268     w3l.obj
 0002:00000274       ?_Iostream_error@?4??message@_Iostream_error_category2@std@@UBE?AV?$basic_string@DU?$char_traits@D@std@@V?$allocator@D@2@@3@H@Z@4QBDB 7e559274     w3l.obj
 0002:00000290       ??_7bad_cast@std@@6B@      7e559290     w3l.obj
 0002:00000298       ??_C@_08EPJLHIJG@bad?5cast@ 7e559298     w3l.obj
 0002:000002a8       ??_7_Facet_base@std@@6B@   7e5592a8     w3l.obj
 0002:000002b4       ??_C@_0BA@ELKIONDK@bad?5locale?5name@ 7e5592b4     w3l.obj
 0002:000002c4       ??_C@_00CNPNBAHC@@         7e5592c4     w3l.obj
 0002:000002cc       ??_7?$ctype@_W@std@@6B@    7e5592cc     w3l.obj
 0002:0000030c       ??_7failure@ios_base@std@@6B@ 7e55930c     w3l.obj
 0002:00000318       ??_7ios_base@std@@6B@      7e559318     w3l.obj
 0002:0000031c       ??_C@_0BF@PHHKMMFD@ios_base?3?3badbit?5set@ 7e55931c     w3l.obj
 0002:00000334       ??_C@_0BG@FMKFHCIL@ios_base?3?3failbit?5set@ 7e559334     w3l.obj
 0002:0000034c       ??_C@_0BF@OOHOMBOF@ios_base?3?3eofbit?5set@ 7e55934c     w3l.obj
 0002:00000368       ??_7?$basic_ios@_WU?$char_traits@_W@std@@@std@@6B@ 7e559368     w3l.obj
 0002:00000370       ??_7?$basic_istream@_WU?$char_traits@_W@std@@@std@@6B@ 7e559370     w3l.obj
 0002:00000374       ??_8?$basic_istream@_WU?$char_traits@_W@std@@@std@@7B@ 7e559374     w3l.obj
 0002:00000380       ??_7?$basic_ostream@_WU?$char_traits@_W@std@@@std@@6B@ 7e559380     w3l.obj
 0002:00000388       ??_7?$basic_iostream@_WU?$char_traits@_W@std@@@std@@6B@ 7e559388     w3l.obj
 0002:0000038c       ??_8?$basic_iostream@_WU?$char_traits@_W@std@@@std@@7B?$basic_istream@_WU?$char_traits@_W@std@@@1@@ 7e55938c     w3l.obj
 0002:00000394       ??_8?$basic_iostream@_WU?$char_traits@_W@std@@@std@@7B?$basic_ostream@_WU?$char_traits@_W@std@@@1@@ 7e559394     w3l.obj
 0002:000003a0       ??_7?$basic_streambuf@_WU?$char_traits@_W@std@@@std@@6B@ 7e5593a0     w3l.obj
 0002:000003e0       ??_7?$basic_stringbuf@_WU?$char_traits@_W@std@@V?$allocator@_W@2@@std@@6B@ 7e5593e0     w3l.obj
 0002:00000420       ??_7?$basic_stringstream@_WU?$char_traits@_W@std@@V?$allocator@_W@2@@std@@6B@ 7e559420     w3l.obj
 0002:00000424       ??_8?$basic_stringstream@_WU?$char_traits@_W@std@@V?$allocator@_W@2@@std@@7B?$basic_istream@_WU?$char_traits@_W@std@@@1@@ 7e559424     w3l.obj
 0002:0000042c       ??_8?$basic_stringstream@_WU?$char_traits@_W@std@@V?$allocator@_W@2@@std@@7B?$basic_ostream@_WU?$char_traits@_W@std@@@1@@ 7e55942c     w3l.obj
 0002:00000434       ??_C@_0BA@MEIMKLKN@InitLoader?4?4?410@ 7e559434     w3l.obj
 0002:00000444       ??_C@_0BA@MGMKBFPE@InitLoader?4?4?420@ 7e559444     w3l.obj
 0002:00000454       ??_C@_0BA@MHAIHPMD@InitLoader?4?4?430@ 7e559454     w3l.obj
 0002:00000464       ??_C@_0BA@MCEHGJEG@InitLoader?4?4?440@ 7e559464     w3l.obj
 0002:00000474       ??_C@_0BA@MAABNHBP@InitLoader?4?4?470@ 7e559474     w3l.obj
 0002:00000484       ??_C@_19IJOJOJIB@?$AAP?$AAA?$AAT?$AAH@ 7e559484     w3l.obj
 0002:00000490       ??_C@_1M@PJAPFKED@?$AAP?$AAA?$AAT?$AAH?$AA?$DN@ 7e559490     w3l.obj
 0002:0000049c       ??_C@_01KICIPPFI@?2@       7e55949c     w3l.obj
 0002:000004a0       ??_C@_13PJJBFPED@?$AA?$DL@ 7e5594a0     w3l.obj
 0002:000004a4       ??_C@_19BMHFJHIJ@?$AA?$AA?$AA?$AA?$AA?$AA?$AA?$AA@ 7e5594a4     w3l.obj
 0002:000004b0       ??_C@_05NAOIJFC@Error@     7e5594b0     w3l.obj
 0002:000004b8       ??_C@_0FK@MFGPOKHB@Could?5not?5start?5War3?4exe?$CB?5Make?5@ 7e5594b8     w3l.obj
 0002:00000514       ??_C@_0BA@MKJPPKBF@InitLoader?4?4?490@ 7e559514     w3l.obj
 0002:00000524       ??_C@_0L@KNOCPDJP@base?3?5?$CFx?$AN?6@ 7e559524     w3l.obj
 0002:00000530       ??_C@_0CE@IELMDOFM@NXCOMPAT?5?$EA?50x?$CF08X?5patching?5fail@ 7e559530     w3l.obj
 0002:00000554       ??_C@_0BB@HHOFGFAN@InitLoader?4?4?4100@ 7e559554     w3l.obj
 0002:00000568       ??_C@_0BD@BPBBJHOC@ResumeThread?3?5?$CFx?$AN?6@ 7e559568     w3l.obj
 0002:0000057c       ??_C@_0BC@FFHLEGKK@Read?5ebx?30x?$CF08X?$AN?6@ 7e55957c     w3l.obj
 0002:00000590       ??_C@_0BK@NOENMMNI@Can?8t?5read?5base?5address?$AN?6@ 7e559590     w3l.obj
 0002:000005ac       ??_C@_1BO@OMCABNCO@?$AAw?$AAa?$AAr?$AA3?$AAl?$AAo?$AAa?$AAd?$AAe?$AAr?$AA?4?$AAl?$AAo?$AAg@ 7e5595ac     w3l.obj
 0002:000005cc       ??_C@_0P@GHFPNOJB@bad?5allocation@ 7e5595cc     libcpmt:xthrow.obj
 0002:000005e0       ??_7logic_error@std@@6B@   7e5595e0     libcpmt:xthrow.obj
 0002:000005ec       ??_7length_error@std@@6B@  7e5595ec     libcpmt:xthrow.obj
 0002:00000b10       ??_C@_07IPNMCAN@success@   7e559b10     libcpmt:syserror.obj
 0002:00000b18       ??_C@_0BN@LKKBCCDB@address?5family?5not?5supported@ 7e559b18     libcpmt:syserror.obj
 0002:00000b38       ??_C@_0P@LDMLAFHI@address?5in?5use@ 7e559b38     libcpmt:syserror.obj
 0002:00000b48       ??_C@_0BG@DHPCNBJB@address?5not?5available@ 7e559b48     libcpmt:syserror.obj
 0002:00000b60       ??_C@_0BC@DFIBIBIL@already?5connected@ 7e559b60     libcpmt:syserror.obj
 0002:00000b74       ??_C@_0BH@CAKOHOMI@argument?5list?5too?5long@ 7e559b74     libcpmt:syserror.obj
 0002:00000b8c       ??_C@_0BH@CGIMPKIM@argument?5out?5of?5domain@ 7e559b8c     libcpmt:syserror.obj
 0002:00000ba4       ??_C@_0M@KGHGGJGL@bad?5address@ 7e559ba4     libcpmt:syserror.obj
 0002:00000bb0       ??_C@_0BE@MPJPGCEO@bad?5file?5descriptor@ 7e559bb0     libcpmt:syserror.obj
 0002:00000bc4       ??_C@_0M@PMMIEFCP@bad?5message@ 7e559bc4     libcpmt:syserror.obj
 0002:00000bd0       ??_C@_0M@KPHOFDBE@broken?5pipe@ 7e559bd0     libcpmt:syserror.obj
 0002:00000bdc       ??_C@_0BD@MGNDDEGM@connection?5aborted@ 7e559bdc     libcpmt:syserror.obj
 0002:00000bf0       ??_C@_0BP@KAIHPOGN@connection?5already?5in?5progress@ 7e559bf0     libcpmt:syserror.obj
 0002:00000c10       ??_C@_0BD@PJLIIJEL@connection?5refused@ 7e559c10     libcpmt:syserror.obj
 0002:00000c24       ??_C@_0BB@IECNJNOI@connection?5reset@ 7e559c24     libcpmt:syserror.obj
 0002:00000c38       ??_C@_0BC@PPHBOELF@cross?5device?5link@ 7e559c38     libcpmt:syserror.obj
 0002:00000c4c       ??_C@_0BN@KDMIFEIP@destination?5address?5required@ 7e559c4c     libcpmt:syserror.obj
 0002:00000c6c       ??_C@_0BI@NGCEHDD@device?5or?5resource?5busy@ 7e559c6c     libcpmt:syserror.obj
 0002:00000c84       ??_C@_0BE@JIDOCPHM@directory?5not?5empty@ 7e559c84     libcpmt:syserror.obj
 0002:00000c98       ??_C@_0BI@BNCLIGPB@executable?5format?5error@ 7e559c98     libcpmt:syserror.obj
 0002:00000cb0       ??_C@_0M@MIDIAGJP@file?5exists@ 7e559cb0     libcpmt:syserror.obj
 0002:00000cbc       ??_C@_0P@DNAJLBJK@file?5too?5large@ 7e559cbc     libcpmt:syserror.obj
 0002:00000ccc       ??_C@_0BC@EJHOMAAK@filename?5too?5long@ 7e559ccc     libcpmt:syserror.obj
 0002:00000ce0       ??_C@_0BH@KEFGLDAF@function?5not?5supported@ 7e559ce0     libcpmt:syserror.obj
 0002:00000cf8       ??_C@_0BB@DHFDFGDM@host?5unreachable@ 7e559cf8     libcpmt:syserror.obj
 0002:00000d0c       ??_C@_0BD@JPHBMONG@identifier?5removed@ 7e559d0c     libcpmt:syserror.obj
 0002:00000d20       ??_C@_0BG@CDNPAGJK@illegal?5byte?5sequence@ 7e559d20     libcpmt:syserror.obj
 0002:00000d38       ??_C@_0CD@BNPLBMNA@inappropriate?5io?5control?5operat@ 7e559d38     libcpmt:syserror.obj
 0002:00000d5c       ??_C@_0M@EGEKIIMP@interrupted@ 7e559d5c     libcpmt:syserror.obj
 0002:00000d68       ??_C@_0BB@FCMFBGOM@invalid?5argument@ 7e559d68     libcpmt:syserror.obj
 0002:00000d7c       ??_C@_0N@OHAFKDEK@invalid?5seek@ 7e559d7c     libcpmt:syserror.obj
 0002:00000d8c       ??_C@_08GLNPIFBN@io?5error@ 7e559d8c     libcpmt:syserror.obj
 0002:00000d98       ??_C@_0P@FLLDBIDK@is?5a?5directory@ 7e559d98     libcpmt:syserror.obj
 0002:00000da8       ??_C@_0N@IFLPBIOP@message?5size@ 7e559da8     libcpmt:syserror.obj
 0002:00000db8       ??_C@_0N@KIIEAAIO@network?5down@ 7e559db8     libcpmt:syserror.obj
 0002:00000dc8       ??_C@_0O@FNPDBHEE@network?5reset@ 7e559dc8     libcpmt:syserror.obj
 0002:00000dd8       ??_C@_0BE@IFNCKGE@network?5unreachable@ 7e559dd8     libcpmt:syserror.obj
 0002:00000dec       ??_C@_0BA@PFFCAOFK@no?5buffer?5space@ 7e559dec     libcpmt:syserror.obj
 0002:00000dfc       ??_C@_0BB@IEPBLJHK@no?5child?5process@ 7e559dfc     libcpmt:syserror.obj
 0002:00000e10       ??_C@_07PLECNNKG@no?5link@ 7e559e10     libcpmt:syserror.obj
 0002:00000e18       ??_C@_0BC@NJECKMKE@no?5lock?5available@ 7e559e18     libcpmt:syserror.obj
 0002:00000e2c       ??_C@_0BF@PBGGPKKE@no?5message?5available@ 7e559e2c     libcpmt:syserror.obj
 0002:00000e44       ??_C@_0L@EDOLMPAK@no?5message@ 7e559e44     libcpmt:syserror.obj
 0002:00000e50       ??_C@_0BD@EAMBFIDF@no?5protocol?5option@ 7e559e50     libcpmt:syserror.obj
 0002:00000e64       ??_C@_0BD@IJDJKDEA@no?5space?5on?5device@ 7e559e64     libcpmt:syserror.obj
 0002:00000e78       ??_C@_0BE@MKFDAFMP@no?5stream?5resources@ 7e559e78     libcpmt:syserror.obj
 0002:00000e8c       ??_C@_0BK@IMCPHCBI@no?5such?5device?5or?5address@ 7e559e8c     libcpmt:syserror.obj
 0002:00000ea8       ??_C@_0P@FDINDDOK@no?5such?5device@ 7e559ea8     libcpmt:syserror.obj
 0002:00000eb8       ??_C@_0BK@NDOCBPGE@no?5such?5file?5or?5directory@ 7e559eb8     libcpmt:syserror.obj
 0002:00000ed4       ??_C@_0BA@ENLPPKBN@no?5such?5process@ 7e559ed4     libcpmt:syserror.obj
 0002:00000ee4       ??_C@_0BA@DOCPFFJG@not?5a?5directory@ 7e559ee4     libcpmt:syserror.obj
 0002:00000ef4       ??_C@_0N@POEIPGGF@not?5a?5socket@ 7e559ef4     libcpmt:syserror.obj
 0002:00000f04       ??_C@_0N@LGAPMMPI@not?5a?5stream@ 7e559f04     libcpmt:syserror.obj
 0002:00000f14       ??_C@_0O@GLMIBBEG@not?5connected@ 7e559f14     libcpmt:syserror.obj
 0002:00000f24       ??_C@_0BC@ENOOLCNF@not?5enough?5memory@ 7e559f24     libcpmt:syserror.obj
 0002:00000f38       ??_C@_0O@NHEDABJP@not?5supported@ 7e559f38     libcpmt:syserror.obj
 0002:00000f48       ??_C@_0BD@MOLBPMEA@operation?5canceled@ 7e559f48     libcpmt:syserror.obj
 0002:00000f5c       ??_C@_0BG@KDKHOPCO@operation?5in?5progress@ 7e559f5c     libcpmt:syserror.obj
 0002:00000f74       ??_C@_0BI@OHIEJAAB@operation?5not?5permitted@ 7e559f74     libcpmt:syserror.obj
 0002:00000f8c       ??_C@_0BI@LNEGIFLN@operation?5not?5supported@ 7e559f8c     libcpmt:syserror.obj
 0002:00000fa4       ??_C@_0BG@OEMDKMEE@operation?5would?5block@ 7e559fa4     libcpmt:syserror.obj
 0002:00000fbc       ??_C@_0L@BLPOFLNJ@owner?5dead@ 7e559fbc     libcpmt:syserror.obj
 0002:00000fc8       ??_C@_0BC@CIJDGCDI@permission?5denied@ 7e559fc8     libcpmt:syserror.obj
 0002:00000fdc       ??_C@_0P@FNPOCJBE@protocol?5error@ 7e559fdc     libcpmt:syserror.obj
 0002:00000fec       ??_C@_0BH@JPPPLHJB@protocol?5not?5supported@ 7e559fec     libcpmt:syserror.obj
 0002:00001004       ??_C@_0BG@EICBIHDP@read?5only?5file?5system@ 7e55a004     libcpmt:syserror.obj
 0002:0000101c       ??_C@_0BO@BJBOMOEJ@resource?5deadlock?5would?5occur@ 7e55a01c     libcpmt:syserror.obj
 0002:0000103c       ??_C@_0BP@LKNGHENJ@resource?5unavailable?5try?5again@ 7e55a03c     libcpmt:syserror.obj
 0002:0000105c       ??_C@_0BE@GOIPJJHG@result?5out?5of?5range@ 7e55a05c     libcpmt:syserror.obj
 0002:00001070       ??_C@_0BG@MPLKFPAE@state?5not?5recoverable@ 7e55a070     libcpmt:syserror.obj
 0002:00001088       ??_C@_0P@DIIFGFCG@stream?5timeout@ 7e55a088     libcpmt:syserror.obj
 0002:00001098       ??_C@_0P@IPFDMIFL@text?5file?5busy@ 7e55a098     libcpmt:syserror.obj
 0002:000010a8       ??_C@_09KJPPMAOI@timed?5out@ 7e55a0a8     libcpmt:syserror.obj
 0002:000010b4       ??_C@_0BO@HACHBEKI@too?5many?5files?5open?5in?5system@ 7e55a0b4     libcpmt:syserror.obj
 0002:000010d4       ??_C@_0BE@GHAFMPAH@too?5many?5files?5open@ 7e55a0d4     libcpmt:syserror.obj
 0002:000010e8       ??_C@_0P@HCOMKFCC@too?5many?5links@ 7e55a0e8     libcpmt:syserror.obj
 0002:000010f8       ??_C@_0BO@EFGOJEF@too?5many?5symbolic?5link?5levels@ 7e55a0f8     libcpmt:syserror.obj
 0002:00001118       ??_C@_0BA@KGKGOOJA@value?5too?5large@ 7e55a118     libcpmt:syserror.obj
 0002:00001128       ??_C@_0BE@MIEJDDNH@wrong?5protocol?5type@ 7e55a128     libcpmt:syserror.obj
 0002:0000113c       ??_C@_0O@BFJCFAAK@unknown?5error@ 7e55a13c     libcpmt:syserror.obj
 0002:00001150       ??_7_Locimp@locale@std@@6B@ 7e55a150     libcpmt:locale0.obj
 0002:0000115c       ??_C@_01NBENCBCI@?$CK@     7e55a15c     libcpmt:locale0.obj
 0002:00001160       ??_C@_01GFHCPBMG@C@        7e55a160     libcpmt:locale0.obj
 0002:00001168       ?_BADOFF@std@@3_JB         7e55a168     libcpmt:ios.obj
 0002:00001270       ??_C@_11LOCGONAA@@         7e55a270     libcpmt:wlocale.obj
 0002:00001274       ??_C@_13IMODFHAA@?$AA?9@   7e55a274     libcpmt:wlocale.obj
 0002:00001278       ??_C@_01JOAMLHOP@?9@       7e55a278     libcpmt:wlocale.obj
 0002:00001320       ??_7type_info@@6B@         7e55a320     LIBCMT:std_type_info_static.obj
 0002:00001324       __pDefaultRawDllMain       7e55a324     LIBCMT:dll_dllmain.obj
 0002:00001324       __pRawDllMain              7e55a324     LIBCMT:dll_dllmain.obj
 0002:00001330       __pDestructExceptionObject 7e55a330     libvcruntime:ehhelpers.obj
 0002:00001338       ??_7bad_exception@std@@6B@ 7e55a338     libvcruntime:frame.obj
 0002:00001340       ??_C@_0O@DPKOEFFH@bad?5exception@ 7e55a340     libvcruntime:frame.obj
 0002:000016d8       ??_C@_08EHJDFFNH@__based?$CI@ 7e55a6d8     libvcruntime:undname.obj
 0002:000016e4       ??_C@_07KOLFKCDI@__cdecl@  7e55a6e4     libvcruntime:undname.obj
 0002:000016ec       ??_C@_08GHMPAG@__pascal@   7e55a6ec     libvcruntime:undname.obj
 0002:000016f8       ??_C@_09IFJBGAPI@__stdcall@ 7e55a6f8     libvcruntime:undname.obj
 0002:00001704       ??_C@_0L@NPHFGOKO@__thiscall@ 7e55a704     libvcruntime:undname.obj
 0002:00001710       ??_C@_0L@JMKHOMEK@__fastcall@ 7e55a710     libvcruntime:undname.obj
 0002:0000171c       ??_C@_0N@BCKKPABJ@__vectorcall@ 7e55a71c     libvcruntime:undname.obj
 0002:0000172c       ??_C@_09HIJEGCPM@__clrcall@ 7e55a72c     libvcruntime:undname.obj
 0002:00001738       ??_C@_06GHPCKEAG@__eabi@   7e55a738     libvcruntime:undname.obj
 0002:00001740       ??_C@_09IOPIDJLG@__swift_1@ 7e55a740     libvcruntime:undname.obj
 0002:0000174c       ??_C@_09KFNFGKHF@__swift_2@ 7e55a74c     libvcruntime:undname.obj
 0002:00001758       ??_C@_09LMMOFLDE@__swift_3@ 7e55a758     libvcruntime:undname.obj
 0002:00001764       ??_C@_07JOMMBBKO@__ptr64@  7e55a764     libvcruntime:undname.obj
 0002:0000176c       ??_C@_0L@PILCLIHE@__restrict@ 7e55a76c     libvcruntime:undname.obj
 0002:00001778       ??_C@_0M@GFIIJFMG@__unaligned@ 7e55a778     libvcruntime:undname.obj
 0002:00001784       ??_C@_09DHDLOLLB@restrict?$CI@ 7e55a784     libvcruntime:undname.obj
 0002:00001790       ??_C@_04NIHEBCM@?5new@     7e55a790     libvcruntime:undname.obj
 0002:00001798       ??_C@_07FPCDHGMM@?5delete@ 7e55a798     libvcruntime:undname.obj
 0002:000017a0       ??_C@_01NEMOKFLO@?$DN@     7e55a7a0     libvcruntime:undname.obj
 0002:000017a4       ??_C@_02GPIOPFAK@?$DO?$DO@ 7e55a7a4     libvcruntime:undname.obj
 0002:000017a8       ??_C@_02FODMEDOG@?$DM?$DM@ 7e55a7a8     libvcruntime:undname.obj
 0002:000017ac       ??_C@_01DCLJPIOD@?$CB@     7e55a7ac     libvcruntime:undname.obj
 0002:000017b0       ??_C@_02EGOFBIJA@?$DN?$DN@ 7e55a7b0     libvcruntime:undname.obj
 0002:000017b4       ??_C@_02FDNJECIE@?$CB?$DN@ 7e55a7b4     libvcruntime:undname.obj
 0002:000017b8       ??_C@_02GPECMEKF@?$FL?$FN@ 7e55a7b8     libvcruntime:undname.obj
 0002:000017bc       ??_C@_08LHJFAFGD@operator@ 7e55a7bc     libvcruntime:undname.obj
 0002:000017c8       ??_C@_02HBOOOICD@?9?$DO@   7e55a7c8     libvcruntime:undname.obj
 0002:000017cc       ??_C@_02ECNGHCIF@?$CL?$CL@ 7e55a7cc     libvcruntime:undname.obj
 0002:000017d0       ??_C@_02BAABKJLB@?9?9@     7e55a7d0     libvcruntime:undname.obj
 0002:000017d4       ??_C@_01MIFGBAGJ@?$CL@     7e55a7d4     libvcruntime:undname.obj
 0002:000017d8       ??_C@_01HNPIGOCE@?$CG@     7e55a7d8     libvcruntime:undname.obj
 0002:000017dc       ??_C@_03MNHNFDLC@?9?$DO?$CK@ 7e55a7dc     libvcruntime:undname.obj
 0002:000017e0       ??_C@_01KMDKNFGN@?1@       7e55a7e0     libvcruntime:undname.obj
 0002:000017e4       ??_C@_01FGNFDNOH@?$CF@     7e55a7e4     libvcruntime:undname.obj
 0002:000017e8       ??_C@_01MNNFJEPP@?$DM@     7e55a7e8     libvcruntime:undname.obj
 0002:000017ec       ??_C@_02EHCHHCKH@?$DM?$DN@ 7e55a7ec     libvcruntime:undname.obj
 0002:000017f0       ??_C@_01PPODPGHN@?$DO@     7e55a7f0     libvcruntime:undname.obj
 0002:000017f4       ??_C@_02EEKDKGMJ@?$DO?$DN@ 7e55a7f4     libvcruntime:undname.obj
 0002:000017f8       ??_C@_01IHBHIGKO@?0@       7e55a7f8     libvcruntime:undname.obj
 0002:000017fc       ??_C@_02HCKGKOFO@?$CI?$CJ@ 7e55a7fc     libvcruntime:undname.obj
 0002:00001800       ??_C@_01PJKLJHI@?$HO@      7e55a800     libvcruntime:undname.obj
 0002:00001804       ??_C@_01JKBOJNNK@?$FO@     7e55a804     libvcruntime:undname.obj
 0002:00001808       ??_C@_01DNKMNLPK@?$HM@     7e55a808     libvcruntime:undname.obj
 0002:0000180c       ??_C@_02PPKAJPJL@?$CG?$CG@ 7e55a80c     libvcruntime:undname.obj
 0002:00001810       ??_C@_02NONPIBCD@?$HM?$HM@ 7e55a810     libvcruntime:undname.obj
 0002:00001814       ??_C@_02FPIMKNGF@?$CK?$DN@ 7e55a814     libvcruntime:undname.obj
 0002:00001818       ??_C@_02FOEOMHFC@?$CL?$DN@ 7e55a818     libvcruntime:undname.obj
 0002:0000181c       ??_C@_02FKMDLLOA@?9?$DN@   7e55a81c     libvcruntime:undname.obj
 0002:00001820       ??_C@_02FJEHGPIO@?1?$DN@   7e55a820     libvcruntime:undname.obj
 0002:00001824       ??_C@_02FENAOKFI@?$CF?$DN@ 7e55a824     libvcruntime:undname.obj
 0002:00001828       ??_C@_03IKFCCPFF@?$DO?$DO?$DN@ 7e55a828     libvcruntime:undname.obj
 0002:0000182c       ??_C@_03CDNPDDLA@?$DM?$DM?$DN@ 7e55a82c     libvcruntime:undname.obj
 0002:00001830       ??_C@_02FGJGFEAB@?$CG?$DN@ 7e55a830     libvcruntime:undname.obj
 0002:00001834       ??_C@_02DHLNPPGH@?$HM?$DN@ 7e55a834     libvcruntime:undname.obj
 0002:00001838       ??_C@_02MHEGNOJ@?$FO?$DN@  7e55a838     libvcruntime:undname.obj
 0002:0000183c       ??_C@_09IFPLHPGF@?$GAvftable?8@ 7e55a83c     libvcruntime:undname.obj
 0002:00001848       ??_C@_09BLBHBJP@?$GAvbtable?8@ 7e55a848     libvcruntime:undname.obj
 0002:00001854       ??_C@_07FEEIOKP@?$GAvcall?8@ 7e55a854     libvcruntime:undname.obj
 0002:0000185c       ??_C@_08LLFFHHDJ@?$GAtypeof?8@ 7e55a85c     libvcruntime:undname.obj
 0002:00001868       ??_C@_0BF@KDPPACIK@?$GAlocal?5static?5guard?8@ 7e55a868     libvcruntime:undname.obj
 0002:00001880       ??_C@_08OBABFOLI@?$GAstring?8@ 7e55a880     libvcruntime:undname.obj
 0002:0000188c       ??_C@_0BD@JDLKDPAB@?$GAvbase?5destructor?8@ 7e55a88c     libvcruntime:undname.obj
 0002:000018a0       ??_C@_0BN@DEGPLNFK@?$GAvector?5deleting?5destructor?8@ 7e55a8a0     libvcruntime:undname.obj
 0002:000018c0       ??_C@_0BO@OBMKPJIG@?$GAdefault?5constructor?5closure?8@ 7e55a8c0     libvcruntime:undname.obj
 0002:000018e0       ??_C@_0BN@IMDCHIKM@?$GAscalar?5deleting?5destructor?8@ 7e55a8e0     libvcruntime:undname.obj
 0002:00001900       ??_C@_0BO@PFGOCPJJ@?$GAvector?5constructor?5iterator?8@ 7e55a900     libvcruntime:undname.obj
 0002:00001920       ??_C@_0BN@LFPFMEDL@?$GAvector?5destructor?5iterator?8@ 7e55a920     libvcruntime:undname.obj
 0002:00001940       ??_C@_0CE@IKBNEHA@?$GAvector?5vbase?5constructor?5itera@ 7e55a940     libvcruntime:undname.obj
 0002:00001964       ??_C@_0BL@NILFHHPC@?$GAvirtual?5displacement?5map?8@ 7e55a964     libvcruntime:undname.obj
 0002:00001980       ??_C@_0CB@JONCMFFK@?$GAeh?5vector?5constructor?5iterator@ 7e55a980     libvcruntime:undname.obj
 0002:000019a4       ??_C@_0CA@GCEOPDGL@?$GAeh?5vector?5destructor?5iterator?8@ 7e55a9a4     libvcruntime:undname.obj
 0002:000019c4       ??_C@_0CH@OOJPLCPH@?$GAeh?5vector?5vbase?5constructor?5it@ 7e55a9c4     libvcruntime:undname.obj
 0002:000019ec       ??_C@_0BL@LLKPOHJI@?$GAcopy?5constructor?5closure?8@ 7e55a9ec     libvcruntime:undname.obj
 0002:00001a08       ??_C@_0BA@KBCDOMBN@?$GAudt?5returning?8@ 7e55aa08     libvcruntime:undname.obj
 0002:00001a18       ??_C@_03KLGMFNMG@?$GAEH@   7e55aa18     libvcruntime:undname.obj
 0002:00001a1c       ??_C@_05KHLCHHI@?$GARTTI@  7e55aa1c     libvcruntime:undname.obj
 0002:00001a24       ??_C@_0BA@KKLDJDLB@?$GAlocal?5vftable?8@ 7e55aa24     libvcruntime:undname.obj
 0002:00001a34       ??_C@_0CE@IIHCMGGL@?$GAlocal?5vftable?5constructor?5clos@ 7e55aa34     libvcruntime:undname.obj
 0002:00001a58       ??_C@_06FHBGPFGH@?5new?$FL?$FN@ 7e55aa58     libvcruntime:undname.obj
 0002:00001a60       ??_C@_09LBNFPBCA@?5delete?$FL?$FN@ 7e55aa60     libvcruntime:undname.obj
 0002:00001a6c       ??_C@_0P@HJKNJFNN@?$GAomni?5callsig?8@ 7e55aa6c     libvcruntime:undname.obj
 0002:00001a7c       ??_C@_0BL@CNOONJFP@?$GAplacement?5delete?5closure?8@ 7e55aa7c     libvcruntime:undname.obj
 0002:00001a98       ??_C@_0BN@CKNJLHMB@?$GAplacement?5delete?$FL?$FN?5closure?8@ 7e55aa98     libvcruntime:undname.obj
 0002:00001ab8       ??_C@_0CG@CFDHKGGD@?$GAmanaged?5vector?5constructor?5ite@ 7e55aab8     libvcruntime:undname.obj
 0002:00001ae0       ??_C@_0CF@IMGKMJNO@?$GAmanaged?5vector?5destructor?5iter@ 7e55aae0     libvcruntime:undname.obj
 0002:00001b08       ??_C@_0CG@HLDDJMAG@?$GAeh?5vector?5copy?5constructor?5ite@ 7e55ab08     libvcruntime:undname.obj
 0002:00001b30       ??_C@_0CM@FCBBDIGB@?$GAeh?5vector?5vbase?5copy?5construct@ 7e55ab30     libvcruntime:undname.obj
 0002:00001b5c       ??_C@_0BL@CLIPGLGB@?$GAdynamic?5initializer?5for?5?8@ 7e55ab5c     libvcruntime:undname.obj
 0002:00001b78       ??_C@_0CB@PDBIFEP@?$GAdynamic?5atexit?5destructor?5for?5@ 7e55ab78     libvcruntime:undname.obj
 0002:00001b9c       ??_C@_0CD@CGAJBKEJ@?$GAvector?5copy?5constructor?5iterat@ 7e55ab9c     libvcruntime:undname.obj
 0002:00001bc0       ??_C@_0CJ@GJELGAMM@?$GAvector?5vbase?5copy?5constructor?5@ 7e55abc0     libvcruntime:undname.obj
 0002:00001bec       ??_C@_0CL@FGIJHLCE@?$GAmanaged?5vector?5copy?5constructo@ 7e55abec     libvcruntime:undname.obj
 0002:00001c18       ??_C@_0BM@PMGGMLDN@?$GAlocal?5static?5thread?5guard?8@ 7e55ac18     libvcruntime:undname.obj
 0002:00001c34       ??_C@_0N@BDNMDMOL@operator?5?$CC?$CC?5@ 7e55ac34     libvcruntime:undname.obj
 0002:00001c44       ??_C@_0BC@GGEBGALA@operator?5co_await@ 7e55ac44     libvcruntime:undname.obj
 0002:00001c58       ??_C@_0M@GAAIMMOH@operator?$DM?$DN?$DO@ 7e55ac58     libvcruntime:undname.obj
 0002:00001c64       ??_C@_0BC@DAFEJGAK@?5Type?5Descriptor?8@ 7e55ac64     libvcruntime:undname.obj
 0002:00001c78       ??_C@_0BM@LDKODKLH@?5Base?5Class?5Descriptor?5at?5?$CI@ 7e55ac78     libvcruntime:undname.obj
 0002:00001c94       ??_C@_0BD@LGICGFMM@?5Base?5Class?5Array?8@ 7e55ac94     libvcruntime:undname.obj
 0002:00001ca8       ??_C@_0BN@MECKDCOJ@?5Class?5Hierarchy?5Descriptor?8@ 7e55aca8     libvcruntime:undname.obj
 0002:00001cc8       ??_C@_0BK@CFCOFLF@?5Complete?5Object?5Locator?8@ 7e55acc8     libvcruntime:undname.obj
 0002:00001ce4       ??_C@_0BG@JNJLAMPM@?$GAanonymous?5namespace?8@ 7e55ace4     libvcruntime:undname.obj
 0002:00001d08       ??_C@_1DM@KHCHBNEB@?$AAa?$AAp?$AAi?$AA?9?$AAm?$AAs?$AA?9?$AAw?$AAi?$AAn?$AA?9?$AAc?$AAo?$AAr?$AAe@ 7e55ad08     libvcruntime:winapi_downlevel.obj
 0002:00001d44       ??_C@_1DK@LPPGFMPP@?$AAa?$AAp?$AAi?$AA?9?$AAm?$AAs?$AA?9?$AAw?$AAi?$AAn?$AA?9?$AAc?$AAo?$AAr?$AAe@ 7e55ad44     libvcruntime:winapi_downlevel.obj
 0002:00001d80       ??_C@_1BC@GDMECMAK@?$AAk?$AAe?$AAr?$AAn?$AAe?$AAl?$AA3?$AA2@ 7e55ad80     libvcruntime:winapi_downlevel.obj
 0002:00001d94       ??_C@_1BA@PFFKHIOG@?$AAa?$AAp?$AAi?$AA?9?$AAm?$AAs?$AA?9@ 7e55ad94     libvcruntime:winapi_downlevel.obj
 0002:00001dac       ??_C@_08KNHFBNJ@FlsAlloc@  7e55adac     libvcruntime:winapi_downlevel.obj
 0002:00001dc0       ??_C@_07PEJMOBNF@FlsFree@  7e55adc0     libvcruntime:winapi_downlevel.obj
 0002:00001dd0       ??_C@_0M@GDNOONDI@FlsGetValue@ 7e55add0     libvcruntime:winapi_downlevel.obj
 0002:00001de4       ??_C@_0M@JCPCPOEF@FlsSetValue@ 7e55ade4     libvcruntime:winapi_downlevel.obj
 0002:00001df8       ??_C@_0BM@HCFOFFN@InitializeCriticalSectionEx@ 7e55adf8     libvcruntime:winapi_downlevel.obj
 0002:00001e18       ___newctype                7e55ae18     libucrt:ctype.obj
 0002:00002118       ___newclmap                7e55b118     libucrt:ctype.obj
 0002:00002298       ___newcumap                7e55b298     libucrt:ctype.obj
 0002:00002418       __wctype                   7e55b418     libucrt:ctype.obj
 0002:00002788       __real@3ff0000000000000    7e55b788     libucrt:frexp.obj
 0002:00002790       ___acrt_exception_action_table 7e55b790     libucrt:exception_filter.obj
 0002:00002820       ___acrt_signal_action_table_count 7e55b820     libucrt:exception_filter.obj
 0002:00002824       ___acrt_signal_action_first_fpe_index 7e55b824     libucrt:exception_filter.obj
 0002:00002828       ___acrt_signal_action_fpe_count 7e55b828     libucrt:exception_filter.obj
 0002:0000282c       ??_C@_1BI@BGOHAHKC@?$AAm?$AAs?$AAc?$AAo?$AAr?$AAe?$AAe?$AA?4?$AAd?$AAl?$AAl@ 7e55b82c     libucrt:exit.obj
 0002:00002844       ??_C@_0P@MIGLKIOC@CorExitProcess@ 7e55b844     libucrt:exit.obj
 0002:00002958       ___lc_category             7e55b958     libucrt:wsetlocale.obj
 0002:000029a0       ??_C@_1O@GIFLHMA@?$AAL?$AAC?$AA_?$AAA?$AAL?$AAL@ 7e55b9a0     libucrt:wsetlocale.obj
 0002:000029b0       ??_C@_1BG@PPOMIBNJ@?$AAL?$AAC?$AA_?$AAC?$AAO?$AAL?$AAL?$AAA?$AAT?$AAE@ 7e55b9b0     libucrt:wsetlocale.obj
 0002:000029c8       ??_C@_1BC@FFJGAPJM@?$AAL?$AAC?$AA_?$AAC?$AAT?$AAY?$AAP?$AAE@ 7e55b9c8     libucrt:wsetlocale.obj
 0002:000029dc       ??_C@_1BI@PCKFNJFB@?$AAL?$AAC?$AA_?$AAM?$AAO?$AAN?$AAE?$AAT?$AAA?$AAR?$AAY@ 7e55b9dc     libucrt:wsetlocale.obj
 0002:000029f4       ??_C@_1BG@ENIEDKID@?$AAL?$AAC?$AA_?$AAN?$AAU?$AAM?$AAE?$AAR?$AAI?$AAC@ 7e55b9f4     libucrt:wsetlocale.obj
 0002:00002a0c       ??_C@_1BA@HAAOMIIG@?$AAL?$AAC?$AA_?$AAT?$AAI?$AAM?$AAE@ 7e55ba0c     libucrt:wsetlocale.obj
 0002:00002a1c       ??_C@_15NBPDDFIP@?$AA?$DN?$AA?$DL@ 7e55ba1c     libucrt:wsetlocale.obj
 0002:00002a24       ??_C@_13NMPKAAJP@?$AA?$DN@ 7e55ba24     libucrt:wsetlocale.obj
 0002:00002a28       ??_C@_17EFJLDFDO@?$AA?9?$AA_?$AA?4@ 7e55ba28     libucrt:wsetlocale.obj
 0002:00002a30       ??_C@_13FHBKNHDA@?$AAC@    7e55ba30     libucrt:wsetlocale.obj
 0002:00002a34       ??_C@_17MBJJLFDM@?$AA_?$AA?4?$AA?0@ 7e55ba34     libucrt:wsetlocale.obj
 0002:00002a3c       ??_C@_13ENNFDPBH@?$AA_@    7e55ba3c     libucrt:wsetlocale.obj
 0002:00002a40       ??_C@_13JOFGPIOO@?$AA?4@   7e55ba40     libucrt:wsetlocale.obj
 0002:00002a48       ___lc_time_c               7e55ba48     libucrt:nlsdata.obj
 0002:00002bac       ??_C@_03KOEHGMDN@Sun@      7e55bbac     libucrt:nlsdata.obj
 0002:00002bb0       ??_C@_03PDAGKDH@Mon@       7e55bbb0     libucrt:nlsdata.obj
 0002:00002bb4       ??_C@_03NAGEINEP@Tue@      7e55bbb4     libucrt:nlsdata.obj
 0002:00002bb8       ??_C@_03MHOMLAJA@Wed@      7e55bbb8     libucrt:nlsdata.obj
 0002:00002bbc       ??_C@_03IOFIKPDN@Thu@      7e55bbbc     libucrt:nlsdata.obj
 0002:00002bc0       ??_C@_03IDIOELNC@Fri@      7e55bbc0     libucrt:nlsdata.obj
 0002:00002bc4       ??_C@_03FEFJNEK@Sat@       7e55bbc4     libucrt:nlsdata.obj
 0002:00002bc8       ??_C@_06OOPIFAJ@Sunday@    7e55bbc8     libucrt:nlsdata.obj
 0002:00002bd0       ??_C@_06JLEDEDGH@Monday@   7e55bbd0     libucrt:nlsdata.obj
 0002:00002bd8       ??_C@_07BAAGCFCM@Tuesday@  7e55bbd8     libucrt:nlsdata.obj
 0002:00002be0       ??_C@_09DLIGFAKA@Wednesday@ 7e55bbe0     libucrt:nlsdata.obj
 0002:00002bec       ??_C@_08HACCIKIA@Thursday@ 7e55bbec     libucrt:nlsdata.obj
 0002:00002bf8       ??_C@_06JECMNKMI@Friday@   7e55bbf8     libucrt:nlsdata.obj
 0002:00002c00       ??_C@_08INBOOONO@Saturday@ 7e55bc00     libucrt:nlsdata.obj
 0002:00002c0c       ??_C@_03JIHJHPIE@Jan@      7e55bc0c     libucrt:nlsdata.obj
 0002:00002c10       ??_C@_03HJBDCHOM@Feb@      7e55bc10     libucrt:nlsdata.obj
 0002:00002c14       ??_C@_03ODNJBKGA@Mar@      7e55bc14     libucrt:nlsdata.obj
 0002:00002c18       ??_C@_03LEOLGMJP@Apr@      7e55bc18     libucrt:nlsdata.obj
 0002:00002c1c       ??_C@_03CNMDKL@May@        7e55bc1c     libucrt:nlsdata.obj
 0002:00002c20       ??_C@_03IDFGHECI@Jun@      7e55bc20     libucrt:nlsdata.obj
 0002:00002c24       ??_C@_03LBGABGKK@Jul@      7e55bc24     libucrt:nlsdata.obj
 0002:00002c28       ??_C@_03IFJFEIGA@Aug@      7e55bc28     libucrt:nlsdata.obj
 0002:00002c2c       ??_C@_03GGCAPAJC@Sep@      7e55bc2c     libucrt:nlsdata.obj
 0002:00002c30       ??_C@_03BMAOKBAD@Oct@      7e55bc30     libucrt:nlsdata.obj
 0002:00002c34       ??_C@_03JPJOFNIA@Nov@      7e55bc34     libucrt:nlsdata.obj
 0002:00002c38       ??_C@_03MKABNOCG@Dec@      7e55bc38     libucrt:nlsdata.obj
 0002:00002c3c       ??_C@_07CGJPFGJA@January@  7e55bc3c     libucrt:nlsdata.obj
 0002:00002c44       ??_C@_08GNJGEPFN@February@ 7e55bc44     libucrt:nlsdata.obj
 0002:00002c50       ??_C@_05HPCKOFNC@March@    7e55bc50     libucrt:nlsdata.obj
 0002:00002c58       ??_C@_05DMJDNLEJ@April@    7e55bc58     libucrt:nlsdata.obj
 0002:00002c60       ??_C@_04CNLMGBGM@June@     7e55bc60     libucrt:nlsdata.obj
 0002:00002c68       ??_C@_04MIEPOIFP@July@     7e55bc68     libucrt:nlsdata.obj
 0002:00002c70       ??_C@_06LBBHFDDG@August@   7e55bc70     libucrt:nlsdata.obj
 0002:00002c78       ??_C@_09BHHEALKD@September@ 7e55bc78     libucrt:nlsdata.obj
 0002:00002c84       ??_C@_07JJNFCEND@October@  7e55bc84     libucrt:nlsdata.obj
 0002:00002c8c       ??_C@_08HCHEGEOA@November@ 7e55bc8c     libucrt:nlsdata.obj
 0002:00002c98       ??_C@_08EDHMEBNP@December@ 7e55bc98     libucrt:nlsdata.obj
 0002:00002ca4       ??_C@_02DEDBPAFC@AM@       7e55bca4     libucrt:nlsdata.obj
 0002:00002ca8       ??_C@_02CJNFDJBF@PM@       7e55bca8     libucrt:nlsdata.obj
 0002:00002cac       ??_C@_08BPBNCDIB@MM?1dd?1yy@ 7e55bcac     libucrt:nlsdata.obj
 0002:00002cb8       ??_C@_0BE@CKGJFCPC@dddd?0?5MMMM?5dd?0?5yyyy@ 7e55bcb8     libucrt:nlsdata.obj
 0002:00002ccc       ??_C@_08JCCMCCIL@HH?3mm?3ss@ 7e55bccc     libucrt:nlsdata.obj
 0002:00002cd8       ??_C@_17MBGCMIPB@?$AAS?$AAu?$AAn@ 7e55bcd8     libucrt:nlsdata.obj
 0002:00002ce0       ??_C@_17KBOMKBF@?$AAM?$AAo?$AAn@ 7e55bce0     libucrt:nlsdata.obj
 0002:00002ce8       ??_C@_17BMKGEGOJ@?$AAT?$AAu?$AAe@ 7e55bce8     libucrt:nlsdata.obj
 0002:00002cf0       ??_C@_17CJEDCEPE@?$AAW?$AAe?$AAd@ 7e55bcf0     libucrt:nlsdata.obj
 0002:00002cf8       ??_C@_17PDPHAADD@?$AAT?$AAh?$AAu@ 7e55bcf8     libucrt:nlsdata.obj
 0002:00002d00       ??_C@_17HFOLPPLP@?$AAF?$AAr?$AAi@ 7e55bd00     libucrt:nlsdata.obj
 0002:00002d08       ??_C@_17GGIBDPIH@?$AAS?$AAa?$AAt@ 7e55bd08     libucrt:nlsdata.obj
 0002:00002d10       ??_C@_1O@IHNHDHPB@?$AAS?$AAu?$AAn?$AAd?$AAa?$AAy@ 7e55bd10     libucrt:nlsdata.obj
 0002:00002d20       ??_C@_1O@MMNBFLIA@?$AAM?$AAo?$AAn?$AAd?$AAa?$AAy@ 7e55bd20     libucrt:nlsdata.obj
 0002:00002d30       ??_C@_1BA@ENFBFFEK@?$AAT?$AAu?$AAe?$AAs?$AAd?$AAa?$AAy@ 7e55bd30     libucrt:nlsdata.obj
 0002:00002d40       ??_C@_1BE@EBOGMDOH@?$AAW?$AAe?$AAd?$AAn?$AAe?$AAs?$AAd?$AAa?$AAy@ 7e55bd40     libucrt:nlsdata.obj
 0002:00002d54       ??_C@_1BC@HHMNLIHE@?$AAT?$AAh?$AAu?$AAr?$AAs?$AAd?$AAa?$AAy@ 7e55bd54     libucrt:nlsdata.obj
 0002:00002d68       ??_C@_1O@PDICJHAG@?$AAF?$AAr?$AAi?$AAd?$AAa?$AAy@ 7e55bd68     libucrt:nlsdata.obj
 0002:00002d78       ??_C@_1BC@ENMNNPAJ@?$AAS?$AAa?$AAt?$AAu?$AAr?$AAd?$AAa?$AAy@ 7e55bd78     libucrt:nlsdata.obj
 0002:00002d8c       ??_C@_17DKNBKCHM@?$AAJ?$AAa?$AAn@ 7e55bd8c     libucrt:nlsdata.obj
 0002:00002d94       ??_C@_17LMDJEKJN@?$AAF?$AAe?$AAb@ 7e55bd94     libucrt:nlsdata.obj
 0002:00002d9c       ??_C@_17CKNLEDEC@?$AAM?$AAa?$AAr@ 7e55bd9c     libucrt:nlsdata.obj
 0002:00002da4       ??_C@_17LFPOIHDD@?$AAA?$AAp?$AAr@ 7e55bda4     libucrt:nlsdata.obj
 0002:00002dac       ??_C@_17PNNKMEED@?$AAM?$AAa?$AAy@ 7e55bdac     libucrt:nlsdata.obj
 0002:00002db4       ??_C@_17KCJGOCPB@?$AAJ?$AAu?$AAn@ 7e55bdb4     libucrt:nlsdata.obj
 0002:00002dbc       ??_C@_17IJPCKHK@?$AAJ?$AAu?$AAl@ 7e55bdbc     libucrt:nlsdata.obj
 0002:00002dc4       ??_C@_17ICPELBCN@?$AAA?$AAu?$AAg@ 7e55bdc4     libucrt:nlsdata.obj
 0002:00002dcc       ??_C@_17HCHCOKMG@?$AAS?$AAe?$AAp@ 7e55bdcc     libucrt:nlsdata.obj
 0002:00002dd4       ??_C@_17FNLKOI@?$AAO?$AAc?$AAt@ 7e55bdd4     libucrt:nlsdata.obj
 0002:00002ddc       ??_C@_17BBDMLCIG@?$AAN?$AAo?$AAv@ 7e55bddc     libucrt:nlsdata.obj
 0002:00002de4       ??_C@_17EGKACKIF@?$AAD?$AAe?$AAc@ 7e55bde4     libucrt:nlsdata.obj
 0002:00002dec       ??_C@_1BA@EFMEIEBA@?$AAJ?$AAa?$AAn?$AAu?$AAa?$AAr?$AAy@ 7e55bdec     libucrt:nlsdata.obj
 0002:00002dfc       ??_C@_1BC@JGDDFFAM@?$AAF?$AAe?$AAb?$AAr?$AAu?$AAa?$AAr?$AAy@ 7e55bdfc     libucrt:nlsdata.obj
 0002:00002e10       ??_C@_1M@IKEENEDF@?$AAM?$AAa?$AAr?$AAc?$AAh@ 7e55be10     libucrt:nlsdata.obj
 0002:00002e1c       ??_C@_1M@GJNLMHFD@?$AAA?$AAp?$AAr?$AAi?$AAl@ 7e55be1c     libucrt:nlsdata.obj
 0002:00002e28       ??_C@_19EPFLPGAP@?$AAJ?$AAu?$AAn?$AAe@ 7e55be28     libucrt:nlsdata.obj
 0002:00002e34       ??_C@_19BIFMLPCD@?$AAJ?$AAu?$AAl?$AAy@ 7e55be34     libucrt:nlsdata.obj
 0002:00002e40       ??_C@_1O@PAHLKOAC@?$AAA?$AAu?$AAg?$AAu?$AAs?$AAt@ 7e55be40     libucrt:nlsdata.obj
 0002:00002e50       ??_C@_1BE@DKAAMBJL@?$AAS?$AAe?$AAp?$AAt?$AAe?$AAm?$AAb?$AAe?$AAr@ 7e55be50     libucrt:nlsdata.obj
 0002:00002e64       ??_C@_1BA@EPANDLNG@?$AAO?$AAc?$AAt?$AAo?$AAb?$AAe?$AAr@ 7e55be64     libucrt:nlsdata.obj
 0002:00002e74       ??_C@_1BC@BGLIFPF@?$AAN?$AAo?$AAv?$AAe?$AAm?$AAb?$AAe?$AAr@ 7e55be74     libucrt:nlsdata.obj
 0002:00002e88       ??_C@_1BC@FEMKIFH@?$AAD?$AAe?$AAc?$AAe?$AAm?$AAb?$AAe?$AAr@ 7e55be88     libucrt:nlsdata.obj
 0002:00002e9c       ??_C@_15ODEHAHHF@?$AAA?$AAM@ 7e55be9c     libucrt:nlsdata.obj
 0002:00002ea4       ??_C@_15CLMNNGEL@?$AAP?$AAM@ 7e55bea4     libucrt:nlsdata.obj
 0002:00002eac       ??_C@_1BC@IEBCMHCM@?$AAM?$AAM?$AA?1?$AAd?$AAd?$AA?1?$AAy?$AAy@ 7e55beac     libucrt:nlsdata.obj
 0002:00002ec0       ??_C@_1CI@KNAKOEBC@?$AAd?$AAd?$AAd?$AAd?$AA?0?$AA?5?$AAM?$AAM?$AAM?$AAM?$AA?5?$AAd?$AAd?$AA?0?$AA?5@ 7e55bec0     libucrt:nlsdata.obj
 0002:00002ee8       ??_C@_1BC@GDGBMEMK@?$AAH?$AAH?$AA?3?$AAm?$AAm?$AA?3?$AAs?$AAs@ 7e55bee8     libucrt:nlsdata.obj
 0002:00002efc       ??_C@_1M@BMHNFIME@?$AAe?$AAn?$AA?9?$AAU?$AAS@ 7e55befc     libucrt:nlsdata.obj
 0002:00002f58       ??_C@_1EA@JGEFHKEI@?$AAa?$AAp?$AAi?$AA?9?$AAm?$AAs?$AA?9?$AAw?$AAi?$AAn?$AA?9?$AAc?$AAo?$AAr?$AAe@ 7e55bf58     libucrt:winapi_thunks.obj
 0002:00002f98       ??_C@_1DI@IJCEHOCB@?$AAa?$AAp?$AAi?$AA?9?$AAm?$AAs?$AA?9?$AAw?$AAi?$AAn?$AA?9?$AAc?$AAo?$AAr?$AAe@ 7e55bf98     libucrt:winapi_thunks.obj
 0002:00002fd0       ??_C@_1EI@MPIAOHOC@?$AAa?$AAp?$AAi?$AA?9?$AAm?$AAs?$AA?9?$AAw?$AAi?$AAn?$AA?9?$AAc?$AAo?$AAr?$AAe@ 7e55bfd0     libucrt:winapi_thunks.obj
 0002:00003018       ??_C@_1FK@FPHCKFIE@?$AAa?$AAp?$AAi?$AA?9?$AAm?$AAs?$AA?9?$AAw?$AAi?$AAn?$AA?9?$AAc?$AAo?$AAr?$AAe@ 7e55c018     libucrt:winapi_thunks.obj
 0002:00003078       ??_C@_1EM@DILCGIIO@?$AAa?$AAp?$AAi?$AA?9?$AAm?$AAs?$AA?9?$AAw?$AAi?$AAn?$AA?9?$AAc?$AAo?$AAr?$AAe@ 7e55c078     libucrt:winapi_thunks.obj
 0002:000030c4       ??_C@_1DM@LNCGDDPN@?$AAa?$AAp?$AAi?$AA?9?$AAm?$AAs?$AA?9?$AAw?$AAi?$AAn?$AA?9?$AAc?$AAo?$AAr?$AAe@ 7e55c0c4     libucrt:winapi_thunks.obj
 0002:00003100       ??_C@_1DO@FPAPJEMD@?$AAa?$AAp?$AAi?$AA?9?$AAm?$AAs?$AA?9?$AAw?$AAi?$AAn?$AA?9?$AAc?$AAo?$AAr?$AAe@ 7e55c100     libucrt:winapi_thunks.obj
 0002:00003140       ??_C@_1DK@NDHNAHIO@?$AAa?$AAp?$AAi?$AA?9?$AAm?$AAs?$AA?9?$AAw?$AAi?$AAn?$AA?9?$AAc?$AAo?$AAr?$AAe@ 7e55c140     libucrt:winapi_thunks.obj
 0002:0000317c       ??_C@_1DM@KGHDGBCM@?$AAa?$AAp?$AAi?$AA?9?$AAm?$AAs?$AA?9?$AAw?$AAi?$AAn?$AA?9?$AAc?$AAo?$AAr?$AAe@ 7e55c17c     libucrt:winapi_thunks.obj
 0002:000031b8       ??_C@_1EO@IJIOEFOH@?$AAa?$AAp?$AAi?$AA?9?$AAm?$AAs?$AA?9?$AAw?$AAi?$AAn?$AA?9?$AAr?$AAt?$AAc?$AAo@ 7e55c1b8     libucrt:winapi_thunks.obj
 0002:00003208       ??_C@_1FG@HHGEKANL@?$AAa?$AAp?$AAi?$AA?9?$AAm?$AAs?$AA?9?$AAw?$AAi?$AAn?$AA?9?$AAs?$AAe?$AAc?$AAu@ 7e55c208     libucrt:winapi_thunks.obj
 0002:00003260       ??_C@_1EG@DBIOJECG@?$AAe?$AAx?$AAt?$AA?9?$AAm?$AAs?$AA?9?$AAw?$AAi?$AAn?$AA?9?$AAn?$AAt?$AAu?$AAs@ 7e55c260     libucrt:winapi_thunks.obj
 0002:000032a8       ??_C@_1EO@FIHMJCLF@?$AAe?$AAx?$AAt?$AA?9?$AAm?$AAs?$AA?9?$AAw?$AAi?$AAn?$AA?9?$AAn?$AAt?$AAu?$AAs@ 7e55c2a8     libucrt:winapi_thunks.obj
 0002:000032f8       ??_C@_1BC@DNHGCMLG@?$AAa?$AAd?$AAv?$AAa?$AAp?$AAi?$AA3?$AA2@ 7e55c2f8     libucrt:winapi_thunks.obj
 0002:0000330c       ??_C@_1M@OAIMIKLP@?$AAn?$AAt?$AAd?$AAl?$AAl@ 7e55c30c     libucrt:winapi_thunks.obj
 0002:00003318       ??_C@_1EG@DPGNFKGC@?$AAa?$AAp?$AAi?$AA?9?$AAm?$AAs?$AA?9?$AAw?$AAi?$AAn?$AA?9?$AAa?$AAp?$AAp?$AAm@ 7e55c318     libucrt:winapi_thunks.obj
 0002:00003360       ??_C@_1O@BCCLBEOE@?$AAu?$AAs?$AAe?$AAr?$AA3?$AA2@ 7e55c360     libucrt:winapi_thunks.obj
 0002:00003370       ??_C@_1DM@BPJLHKCE@?$AAa?$AAp?$AAi?$AA?9?$AAm?$AAs?$AA?9?$AAw?$AAi?$AAn?$AA?9?$AAc?$AAo?$AAr?$AAe@ 7e55c370     libucrt:winapi_thunks.obj
 0002:000033ac       ??_C@_1BA@IAIFMGEF@?$AAe?$AAx?$AAt?$AA?9?$AAm?$AAs?$AA?9@ 7e55c3ac     libucrt:winapi_thunks.obj
 0002:000033c0       ??_C@_0BA@FHFNEAED@AreFileApisANSI@ 7e55c3c0     libucrt:winapi_thunks.obj
 0002:000033d8       ??_C@_0BA@IHGNDAEB@CompareStringEx@ 7e55c3d8     libucrt:winapi_thunks.obj
 0002:000033f0       ??_C@_0BE@LJANKFHF@EnumSystemLocalesEx@ 7e55c3f0     libucrt:winapi_thunks.obj
 0002:0000340c       ??_C@_0BA@EPCJIIPD@GetDateFormatEx@ 7e55c40c     libucrt:winapi_thunks.obj
 0002:00003424       ??_C@_0BA@ONOKGCMP@GetLocaleInfoEx@ 7e55c424     libucrt:winapi_thunks.obj
 0002:0000343c       ??_C@_0BA@CIJJKCJJ@GetTimeFormatEx@ 7e55c43c     libucrt:winapi_thunks.obj
 0002:00003454       ??_C@_0BJ@PBCCBIPI@GetUserDefaultLocaleName@ 7e55c454     libucrt:winapi_thunks.obj
 0002:00003480       ??_C@_0BC@CELBKLLA@IsValidLocaleName@ 7e55c480     libucrt:winapi_thunks.obj
 0002:0000349c       ??_C@_0O@KKBNKAPF@LCMapStringEx@ 7e55c49c     libucrt:winapi_thunks.obj
 0002:000034b4       ??_C@_0BB@CDHDDLLP@LCIDToLocaleName@ 7e55c4b4     libucrt:winapi_thunks.obj
 0002:000034d0       ??_C@_0BB@HBDEELFH@LocaleNameToLCID@ 7e55c4d0     libucrt:winapi_thunks.obj
 0002:000034e8       ??_C@_0CF@OJOFEIGO@AppPolicyGetProcessTerminationM@ 7e55c4e8     libucrt:winapi_thunks.obj
 0002:00003618       ??_C@_03KHJOGHMM@exp@      7e55c618     libucrt:fpexcept.obj
 0002:0000361c       ??_C@_03JGHBODFD@pow@      7e55c61c     libucrt:fpexcept.obj
 0002:00003620       ??_C@_03MGHMBJCF@log@      7e55c620     libucrt:fpexcept.obj
 0002:00003624       ??_C@_05HGHHAHAP@log10@    7e55c624     libucrt:fpexcept.obj
 0002:0000362c       ??_C@_04COOMCNPB@sinh@     7e55c62c     libucrt:fpexcept.obj
 0002:00003634       ??_C@_04HPJJNFIM@cosh@     7e55c634     libucrt:fpexcept.obj
 0002:0000363c       ??_C@_04FJHINJAO@tanh@     7e55c63c     libucrt:fpexcept.obj
 0002:00003644       ??_C@_04FIHNOPOL@asin@     7e55c644     libucrt:fpexcept.obj
 0002:0000364c       ??_C@_04PDIFKINK@acos@     7e55c64c     libucrt:fpexcept.obj
 0002:00003654       ??_C@_04MLLJIGOK@atan@     7e55c654     libucrt:fpexcept.obj
 0002:0000365c       ??_C@_05KNGEOGJB@atan2@    7e55c65c     libucrt:fpexcept.obj
 0002:00003664       ??_C@_04EIAKFFMI@sqrt@     7e55c664     libucrt:fpexcept.obj
 0002:0000366c       ??_C@_03BLEJJJBH@sin@      7e55c66c     libucrt:fpexcept.obj
 0002:00003670       ??_C@_03LALBNOCG@cos@      7e55c670     libucrt:fpexcept.obj
 0002:00003674       ??_C@_03IIINPABG@tan@      7e55c674     libucrt:fpexcept.obj
 0002:00003678       ??_C@_04GFPJNGEK@ceil@     7e55c678     libucrt:fpexcept.obj
 0002:00003680       ??_C@_05PBJFFIGL@floor@    7e55c680     libucrt:fpexcept.obj
 0002:00003688       ??_C@_04ODHECPBC@fabs@     7e55c688     libucrt:fpexcept.obj
 0002:00003690       ??_C@_04EHEDPDJG@modf@     7e55c690     libucrt:fpexcept.obj
 0002:00003698       ??_C@_05CEJMAHNP@ldexp@    7e55c698     libucrt:fpexcept.obj
 0002:000036a0       ??_C@_05KBKMEMPO@_cabs@    7e55c6a0     libucrt:fpexcept.obj
 0002:000036a8       ??_C@_06MEIMCGCF@_hypot@   7e55c6a8     libucrt:fpexcept.obj
 0002:000036b0       ??_C@_04KEPJIHGP@fmod@     7e55c6b0     libucrt:fpexcept.obj
 0002:000036b8       ??_C@_05GKKHEGJL@frexp@    7e55c6b8     libucrt:fpexcept.obj
 0002:000036c0       ??_C@_03MJLDFKDL@_y0@      7e55c6c0     libucrt:fpexcept.obj
 0002:000036c4       ??_C@_03NAKIGLHK@_y1@      7e55c6c4     libucrt:fpexcept.obj
 0002:000036c8       ??_C@_03ONILCKOB@_yn@      7e55c6c8     libucrt:fpexcept.obj
 0002:000036cc       ??_C@_05JGDBENOH@_logb@    7e55c6cc     libucrt:fpexcept.obj
 0002:000036d4       ??_C@_0L@KDOEJCKC@_nextafter@ 7e55c6d4     libucrt:fpexcept.obj
 0002:000036e0       __d_inf                    7e55c6e0     libucrt:util.obj
 0002:000036e8       __d_max                    7e55c6e8     libucrt:util.obj
 0002:000036f0       __d_mzero                  7e55c6f0     libucrt:util.obj
 0002:00003720       ??_C@_1M@HPNHIDJI@?$AAj?$AAa?$AA?9?$AAJ?$AAP@ 7e55c720     libucrt:mbctype.obj
 0002:0000372c       ??_C@_1M@BIBDDEMK@?$AAz?$AAh?$AA?9?$AAC?$AAN@ 7e55c72c     libucrt:mbctype.obj
 0002:00003738       ??_C@_1M@JLOOOEGK@?$AAk?$AAo?$AA?9?$AAK?$AAR@ 7e55c738     libucrt:mbctype.obj
 0002:00003744       ??_C@_1M@CLNBBOPM@?$AAz?$AAh?$AA?9?$AAT?$AAW@ 7e55c744     libucrt:mbctype.obj
 0002:00003750       ___acrt_rg_language        7e55c750     libucrt:get_qualified_locale.obj
 0002:00003a5c       ___acrt_rg_language_count  7e55ca5c     libucrt:get_qualified_locale.obj
 0002:00003a60       ___acrt_rg_country         7e55ca60     libucrt:get_qualified_locale.obj
 0002:00003b74       ___acrt_rg_country_count   7e55cb74     libucrt:get_qualified_locale.obj
 0002:00003b78       ??_C@_1BC@LLOKLNP@?$AAa?$AAm?$AAe?$AAr?$AAi?$AAc?$AAa?$AAn@ 7e55cb78     libucrt:get_qualified_locale.obj
 0002:00003b8c       ??_C@_1CC@HEIGCDGG@?$AAa?$AAm?$AAe?$AAr?$AAi?$AAc?$AAa?$AAn?$AA?5?$AAe?$AAn?$AAg?$AAl?$AAi?$AAs@ 7e55cb8c     libucrt:get_qualified_locale.obj
 0002:00003bb0       ??_C@_1CC@IHCNOMIN@?$AAa?$AAm?$AAe?$AAr?$AAi?$AAc?$AAa?$AAn?$AA?9?$AAe?$AAn?$AAg?$AAl?$AAi?$AAs@ 7e55cbb0     libucrt:get_qualified_locale.obj
 0002:00003bd4       ??_C@_1BG@GKAGPCGG@?$AAa?$AAu?$AAs?$AAt?$AAr?$AAa?$AAl?$AAi?$AAa?$AAn@ 7e55cbd4     libucrt:get_qualified_locale.obj
 0002:00003bec       ??_C@_1BA@GMENCENF@?$AAb?$AAe?$AAl?$AAg?$AAi?$AAa?$AAn@ 7e55cbec     libucrt:get_qualified_locale.obj
 0002:00003bfc       ??_C@_1BC@PJMIIAAN@?$AAc?$AAa?$AAn?$AAa?$AAd?$AAi?$AAa?$AAn@ 7e55cbfc     libucrt:get_qualified_locale.obj
 0002:00003c10       ??_C@_17NOIMNFBF@?$AAc?$AAh?$AAh@ 7e55cc10     libucrt:get_qualified_locale.obj
 0002:00003c18       ??_C@_17GGDALCHA@?$AAc?$AAh?$AAi@ 7e55cc18     libucrt:get_qualified_locale.obj
 0002:00003c20       ??_C@_1BA@NPNJKIBL@?$AAc?$AAh?$AAi?$AAn?$AAe?$AAs?$AAe@ 7e55cc20     libucrt:get_qualified_locale.obj
 0002:00003c30       ??_C@_1CC@DINBAMMJ@?$AAc?$AAh?$AAi?$AAn?$AAe?$AAs?$AAe?$AA?9?$AAh?$AAo?$AAn?$AAg?$AAk?$AAo?$AAn@ 7e55cc30     libucrt:get_qualified_locale.obj
 0002:00003c54       ??_C@_1CG@IOBJPACO@?$AAc?$AAh?$AAi?$AAn?$AAe?$AAs?$AAe?$AA?9?$AAs?$AAi?$AAm?$AAp?$AAl?$AAi?$AAf@ 7e55cc54     libucrt:get_qualified_locale.obj
 0002:00003c7c       ??_C@_1CE@GAJNDCKG@?$AAc?$AAh?$AAi?$AAn?$AAe?$AAs?$AAe?$AA?9?$AAs?$AAi?$AAn?$AAg?$AAa?$AAp?$AAo@ 7e55cc7c     libucrt:get_qualified_locale.obj
 0002:00003ca0       ??_C@_1CI@PAJPIOOD@?$AAc?$AAh?$AAi?$AAn?$AAe?$AAs?$AAe?$AA?9?$AAt?$AAr?$AAa?$AAd?$AAi?$AAt?$AAi@ 7e55cca0     libucrt:get_qualified_locale.obj
 0002:00003cc8       ??_C@_1BM@NILJBMMD@?$AAd?$AAu?$AAt?$AAc?$AAh?$AA?9?$AAb?$AAe?$AAl?$AAg?$AAi?$AAa?$AAn@ 7e55ccc8     libucrt:get_qualified_locale.obj
 0002:00003ce4       ??_C@_1CC@OOJPJNEJ@?$AAe?$AAn?$AAg?$AAl?$AAi?$AAs?$AAh?$AA?9?$AAa?$AAm?$AAe?$AAr?$AAi?$AAc?$AAa@ 7e55cce4     libucrt:get_qualified_locale.obj
 0002:00003d08       ??_C@_1BI@IOLFEEM@?$AAe?$AAn?$AAg?$AAl?$AAi?$AAs?$AAh?$AA?9?$AAa?$AAu?$AAs@ 7e55cd08     libucrt:get_qualified_locale.obj
 0002:00003d20       ??_C@_1BO@HFFNLENJ@?$AAe?$AAn?$AAg?$AAl?$AAi?$AAs?$AAh?$AA?9?$AAb?$AAe?$AAl?$AAi?$AAz?$AAe@ 7e55cd20     libucrt:get_qualified_locale.obj
 0002:00003d40       ??_C@_1BI@HAPKJMPO@?$AAe?$AAn?$AAg?$AAl?$AAi?$AAs?$AAh?$AA?9?$AAc?$AAa?$AAn@ 7e55cd40     libucrt:get_qualified_locale.obj
 0002:00003d58       ??_C@_1CE@HLNDMIOJ@?$AAe?$AAn?$AAg?$AAl?$AAi?$AAs?$AAh?$AA?9?$AAc?$AAa?$AAr?$AAi?$AAb?$AAb?$AAe@ 7e55cd58     libucrt:get_qualified_locale.obj
 0002:00003d7c       ??_C@_1BI@LDHJHHAC@?$AAe?$AAn?$AAg?$AAl?$AAi?$AAs?$AAh?$AA?9?$AAi?$AAr?$AAe@ 7e55cd7c     libucrt:get_qualified_locale.obj
 0002:00003d94       ??_C@_1CA@NJMMCFOC@?$AAe?$AAn?$AAg?$AAl?$AAi?$AAs?$AAh?$AA?9?$AAj?$AAa?$AAm?$AAa?$AAi?$AAc?$AAa@ 7e55cd94     libucrt:get_qualified_locale.obj
 0002:00003db4       ??_C@_1BG@BHJEBBGG@?$AAe?$AAn?$AAg?$AAl?$AAi?$AAs?$AAh?$AA?9?$AAn?$AAz@ 7e55cdb4     libucrt:get_qualified_locale.obj
 0002:00003dcc       ??_C@_1CK@FGOEJJCO@?$AAe?$AAn?$AAg?$AAl?$AAi?$AAs?$AAh?$AA?9?$AAs?$AAo?$AAu?$AAt?$AAh?$AA?5?$AAa@ 7e55cdcc     libucrt:get_qualified_locale.obj
 0002:00003df8       ??_C@_1DE@PDBJPCJ@?$AAe?$AAn?$AAg?$AAl?$AAi?$AAs?$AAh?$AA?9?$AAt?$AAr?$AAi?$AAn?$AAi?$AAd?$AAa@ 7e55cdf8     libucrt:get_qualified_locale.obj
 0002:00003e2c       ??_C@_1BG@JGCANDME@?$AAe?$AAn?$AAg?$AAl?$AAi?$AAs?$AAh?$AA?9?$AAu?$AAk@ 7e55ce2c     libucrt:get_qualified_locale.obj
 0002:00003e44       ??_C@_1BG@DINKMLE@?$AAe?$AAn?$AAg?$AAl?$AAi?$AAs?$AAh?$AA?9?$AAu?$AAs@ 7e55ce44     libucrt:get_qualified_locale.obj
 0002:00003e5c       ??_C@_1BI@NMFDBHJE@?$AAe?$AAn?$AAg?$AAl?$AAi?$AAs?$AAh?$AA?9?$AAu?$AAs?$AAa@ 7e55ce5c     libucrt:get_qualified_locale.obj
 0002:00003e74       ??_C@_1BO@OIHKJKII@?$AAf?$AAr?$AAe?$AAn?$AAc?$AAh?$AA?9?$AAb?$AAe?$AAl?$AAg?$AAi?$AAa?$AAn@ 7e55ce74     libucrt:get_qualified_locale.obj
 0002:00003e94       ??_C@_1CA@NKAELJKI@?$AAf?$AAr?$AAe?$AAn?$AAc?$AAh?$AA?9?$AAc?$AAa?$AAn?$AAa?$AAd?$AAi?$AAa?$AAn@ 7e55ce94     libucrt:get_qualified_locale.obj
 0002:00003eb4       ??_C@_1CE@MGKCNLGN@?$AAf?$AAr?$AAe?$AAn?$AAc?$AAh?$AA?9?$AAl?$AAu?$AAx?$AAe?$AAm?$AAb?$AAo?$AAu@ 7e55ceb4     libucrt:get_qualified_locale.obj
 0002:00003ed8       ??_C@_1BK@CEGEAILM@?$AAf?$AAr?$AAe?$AAn?$AAc?$AAh?$AA?9?$AAs?$AAw?$AAi?$AAs?$AAs@ 7e55ced8     libucrt:get_qualified_locale.obj
 0002:00003ef4       ??_C@_1CA@PAFKEOCC@?$AAg?$AAe?$AAr?$AAm?$AAa?$AAn?$AA?9?$AAa?$AAu?$AAs?$AAt?$AAr?$AAi?$AAa?$AAn@ 7e55cef4     libucrt:get_qualified_locale.obj
 0002:00003f14       ??_C@_1CI@HCFHGOFD@?$AAg?$AAe?$AAr?$AAm?$AAa?$AAn?$AA?9?$AAl?$AAi?$AAc?$AAh?$AAt?$AAe?$AAn?$AAs@ 7e55cf14     libucrt:get_qualified_locale.obj
 0002:00003f3c       ??_C@_1CE@FEDDNPDG@?$AAg?$AAe?$AAr?$AAm?$AAa?$AAn?$AA?9?$AAl?$AAu?$AAx?$AAe?$AAm?$AAb?$AAo?$AAu@ 7e55cf3c     libucrt:get_qualified_locale.obj
 0002:00003f60       ??_C@_1BK@LIMINNMN@?$AAg?$AAe?$AAr?$AAm?$AAa?$AAn?$AA?9?$AAs?$AAw?$AAi?$AAs?$AAs@ 7e55cf60     libucrt:get_qualified_locale.obj
 0002:00003f7c       ??_C@_1BM@LGMDBEPD@?$AAi?$AAr?$AAi?$AAs?$AAh?$AA?9?$AAe?$AAn?$AAg?$AAl?$AAi?$AAs?$AAh@ 7e55cf7c     libucrt:get_qualified_locale.obj
 0002:00003f98       ??_C@_1BM@NNCFBAEE@?$AAi?$AAt?$AAa?$AAl?$AAi?$AAa?$AAn?$AA?9?$AAs?$AAw?$AAi?$AAs?$AAs@ 7e55cf98     libucrt:get_qualified_locale.obj
 0002:00003fb4       ??_C@_1BE@FEDJNPIB@?$AAn?$AAo?$AAr?$AAw?$AAe?$AAg?$AAi?$AAa?$AAn@ 7e55cfb4     libucrt:get_qualified_locale.obj
 0002:00003fc8       ??_C@_1CC@CILKDEIE@?$AAn?$AAo?$AAr?$AAw?$AAe?$AAg?$AAi?$AAa?$AAn?$AA?9?$AAb?$AAo?$AAk?$AAm?$AAa@ 7e55cfc8     libucrt:get_qualified_locale.obj
 0002:00003fec       ??_C@_1CE@DHMMHEPL@?$AAn?$AAo?$AAr?$AAw?$AAe?$AAg?$AAi?$AAa?$AAn?$AA?9?$AAn?$AAy?$AAn?$AAo?$AAr@ 7e55cfec     libucrt:get_qualified_locale.obj
 0002:00004010       ??_C@_1CK@OPNMHECD@?$AAp?$AAo?$AAr?$AAt?$AAu?$AAg?$AAu?$AAe?$AAs?$AAe?$AA?9?$AAb?$AAr?$AAa?$AAz@ 7e55d010     libucrt:get_qualified_locale.obj
 0002:0000403c       ??_C@_1CE@KEEHCDB@?$AAs?$AAp?$AAa?$AAn?$AAi?$AAs?$AAh?$AA?9?$AAa?$AAr?$AAg?$AAe?$AAn?$AAt?$AAi@ 7e55d03c     libucrt:get_qualified_locale.obj
 0002:00004060       ??_C@_1CA@GIAOLHJD@?$AAs?$AAp?$AAa?$AAn?$AAi?$AAs?$AAh?$AA?9?$AAb?$AAo?$AAl?$AAi?$AAv?$AAi?$AAa@ 7e55d060     libucrt:get_qualified_locale.obj
 0002:00004080       ??_C@_1BM@OJNDFNPD@?$AAs?$AAp?$AAa?$AAn?$AAi?$AAs?$AAh?$AA?9?$AAc?$AAh?$AAi?$AAl?$AAe@ 7e55d080     libucrt:get_qualified_locale.obj
 0002:0000409c       ??_C@_1CC@OCOLPALL@?$AAs?$AAp?$AAa?$AAn?$AAi?$AAs?$AAh?$AA?9?$AAc?$AAo?$AAl?$AAo?$AAm?$AAb?$AAi@ 7e55d09c     libucrt:get_qualified_locale.obj
 0002:000040c0       ??_C@_1CG@BPOFMKBB@?$AAs?$AAp?$AAa?$AAn?$AAi?$AAs?$AAh?$AA?9?$AAc?$AAo?$AAs?$AAt?$AAa?$AA?5?$AAr@ 7e55d0c0     libucrt:get_qualified_locale.obj
 0002:000040e8       ??_C@_1DG@IGOBAPBB@?$AAs?$AAp?$AAa?$AAn?$AAi?$AAs?$AAh?$AA?9?$AAd?$AAo?$AAm?$AAi?$AAn?$AAi?$AAc@ 7e55d0e8     libucrt:get_qualified_locale.obj
 0002:00004120       ??_C@_1CA@JHAPGEGI@?$AAs?$AAp?$AAa?$AAn?$AAi?$AAs?$AAh?$AA?9?$AAe?$AAc?$AAu?$AAa?$AAd?$AAo?$AAr@ 7e55d120     libucrt:get_qualified_locale.obj
 0002:00004140       ??_C@_1CI@LAPALJPP@?$AAs?$AAp?$AAa?$AAn?$AAi?$AAs?$AAh?$AA?9?$AAe?$AAl?$AA?5?$AAs?$AAa?$AAl?$AAv@ 7e55d140     libucrt:get_qualified_locale.obj
 0002:00004168       ??_C@_1CE@PDGBOFOM@?$AAs?$AAp?$AAa?$AAn?$AAi?$AAs?$AAh?$AA?9?$AAg?$AAu?$AAa?$AAt?$AAe?$AAm?$AAa@ 7e55d168     libucrt:get_qualified_locale.obj
 0002:0000418c       ??_C@_1CC@NBEBAODI@?$AAs?$AAp?$AAa?$AAn?$AAi?$AAs?$AAh?$AA?9?$AAh?$AAo?$AAn?$AAd?$AAu?$AAr?$AAa@ 7e55d18c     libucrt:get_qualified_locale.obj
 0002:000041b0       ??_C@_1CA@LLKGHBMF@?$AAs?$AAp?$AAa?$AAn?$AAi?$AAs?$AAh?$AA?9?$AAm?$AAe?$AAx?$AAi?$AAc?$AAa?$AAn@ 7e55d1b0     libucrt:get_qualified_locale.obj
 0002:000041d0       ??_C@_1BO@LKNDOIGD@?$AAs?$AAp?$AAa?$AAn?$AAi?$AAs?$AAh?$AA?9?$AAm?$AAo?$AAd?$AAe?$AAr?$AAn@ 7e55d1d0     libucrt:get_qualified_locale.obj
 0002:000041f0       ??_C@_1CE@NMDMOEEB@?$AAs?$AAp?$AAa?$AAn?$AAi?$AAs?$AAh?$AA?9?$AAn?$AAi?$AAc?$AAa?$AAr?$AAa?$AAg@ 7e55d1f0     libucrt:get_qualified_locale.obj
 0002:00004214       ??_C@_1BO@LLCBEJGB@?$AAs?$AAp?$AAa?$AAn?$AAi?$AAs?$AAh?$AA?9?$AAp?$AAa?$AAn?$AAa?$AAm?$AAa@ 7e55d214     libucrt:get_qualified_locale.obj
 0002:00004234       ??_C@_1CC@FKPGGIHO@?$AAs?$AAp?$AAa?$AAn?$AAi?$AAs?$AAh?$AA?9?$AAp?$AAa?$AAr?$AAa?$AAg?$AAu?$AAa@ 7e55d234     libucrt:get_qualified_locale.obj
 0002:00004258       ??_C@_1BK@CDEIHOOP@?$AAs?$AAp?$AAa?$AAn?$AAi?$AAs?$AAh?$AA?9?$AAp?$AAe?$AAr?$AAu@ 7e55d258     libucrt:get_qualified_locale.obj
 0002:00004274       ??_C@_1CI@GAHAKKGP@?$AAs?$AAp?$AAa?$AAn?$AAi?$AAs?$AAh?$AA?9?$AAp?$AAu?$AAe?$AAr?$AAt?$AAo?$AA?5@ 7e55d274     libucrt:get_qualified_locale.obj
 0002:0000429c       ??_C@_1CA@NKJBCAGP@?$AAs?$AAp?$AAa?$AAn?$AAi?$AAs?$AAh?$AA?9?$AAu?$AAr?$AAu?$AAg?$AAu?$AAa?$AAy@ 7e55d29c     libucrt:get_qualified_locale.obj
 0002:000042bc       ??_C@_1CE@ODILCONM@?$AAs?$AAp?$AAa?$AAn?$AAi?$AAs?$AAh?$AA?9?$AAv?$AAe?$AAn?$AAe?$AAz?$AAu?$AAe@ 7e55d2bc     libucrt:get_qualified_locale.obj
 0002:000042e0       ??_C@_1CA@OBNMCGFO@?$AAs?$AAw?$AAe?$AAd?$AAi?$AAs?$AAh?$AA?9?$AAf?$AAi?$AAn?$AAl?$AAa?$AAn?$AAd@ 7e55d2e0     libucrt:get_qualified_locale.obj
 0002:00004300       ??_C@_1M@PIPDDPPI@?$AAs?$AAw?$AAi?$AAs?$AAs@ 7e55d300     libucrt:get_qualified_locale.obj
 0002:0000430c       ??_C@_15PJPFLCCM@?$AAu?$AAk@ 7e55d30c     libucrt:get_qualified_locale.obj
 0002:00004314       ??_C@_15GMFIMNFM@?$AAu?$AAs@ 7e55d314     libucrt:get_qualified_locale.obj
 0002:0000431c       ??_C@_17HAEBFAGL@?$AAu?$AAs?$AAa@ 7e55d31c     libucrt:get_qualified_locale.obj
 0002:00004324       ??_C@_1BA@DPFJEPHB@?$AAa?$AAm?$AAe?$AAr?$AAi?$AAc?$AAa@ 7e55d324     libucrt:get_qualified_locale.obj
 0002:00004334       ??_C@_1BA@ELOGGFK@?$AAb?$AAr?$AAi?$AAt?$AAa?$AAi?$AAn@ 7e55d334     libucrt:get_qualified_locale.obj
 0002:00004344       ??_C@_1M@GHBGIGDA@?$AAc?$AAh?$AAi?$AAn?$AAa@ 7e55d344     libucrt:get_qualified_locale.obj
 0002:00004350       ??_C@_1M@NCHEJOPO@?$AAc?$AAz?$AAe?$AAc?$AAh@ 7e55d350     libucrt:get_qualified_locale.obj
 0002:0000435c       ??_C@_1BA@BKPAPBLA@?$AAe?$AAn?$AAg?$AAl?$AAa?$AAn?$AAd@ 7e55d35c     libucrt:get_qualified_locale.obj
 0002:0000436c       ??_C@_1BM@HKBCKIPC@?$AAg?$AAr?$AAe?$AAa?$AAt?$AA?5?$AAb?$AAr?$AAi?$AAt?$AAa?$AAi?$AAn@ 7e55d36c     libucrt:get_qualified_locale.obj
 0002:00004388       ??_C@_1BA@PPCHPGJB@?$AAh?$AAo?$AAl?$AAl?$AAa?$AAn?$AAd@ 7e55d388     libucrt:get_qualified_locale.obj
 0002:00004398       ??_C@_1BE@JBMPEGDG@?$AAh?$AAo?$AAn?$AAg?$AA?9?$AAk?$AAo?$AAn?$AAg@ 7e55d398     libucrt:get_qualified_locale.obj
 0002:000043ac       ??_C@_1BI@KOELBBPJ@?$AAn?$AAe?$AAw?$AA?9?$AAz?$AAe?$AAa?$AAl?$AAa?$AAn?$AAd@ 7e55d3ac     libucrt:get_qualified_locale.obj
 0002:000043c4       ??_C@_15HIEBHAIO@?$AAn?$AAz@ 7e55d3c4     libucrt:get_qualified_locale.obj
 0002:000043cc       ??_C@_1BC@CHBCPFPI@?$AAp?$AAr?$AA?5?$AAc?$AAh?$AAi?$AAn?$AAa@ 7e55d3cc     libucrt:get_qualified_locale.obj
 0002:000043e0       ??_C@_1BC@JAOIIFKD@?$AAp?$AAr?$AA?9?$AAc?$AAh?$AAi?$AAn?$AAa@ 7e55d3e0     libucrt:get_qualified_locale.obj
 0002:000043f4       ??_C@_1BI@BEHPPHKC@?$AAp?$AAu?$AAe?$AAr?$AAt?$AAo?$AA?9?$AAr?$AAi?$AAc?$AAo@ 7e55d3f4     libucrt:get_qualified_locale.obj
 0002:0000440c       ??_C@_1O@PAEOFKDI@?$AAs?$AAl?$AAo?$AAv?$AAa?$AAk@ 7e55d40c     libucrt:get_qualified_locale.obj
 0002:0000441c       ??_C@_1BK@FIHMCKAM@?$AAs?$AAo?$AAu?$AAt?$AAh?$AA?5?$AAa?$AAf?$AAr?$AAi?$AAc?$AAa@ 7e55d41c     libucrt:get_qualified_locale.obj
 0002:00004438       ??_C@_1BI@NAEOODKB@?$AAs?$AAo?$AAu?$AAt?$AAh?$AA?5?$AAk?$AAo?$AAr?$AAe?$AAa@ 7e55d438     libucrt:get_qualified_locale.obj
 0002:00004450       ??_C@_1BK@FBDGGIFF@?$AAs?$AAo?$AAu?$AAt?$AAh?$AA?9?$AAa?$AAf?$AAr?$AAi?$AAc?$AAa@ 7e55d450     libucrt:get_qualified_locale.obj
 0002:0000446c       ??_C@_1BI@GHLEJDPK@?$AAs?$AAo?$AAu?$AAt?$AAh?$AA?9?$AAk?$AAo?$AAr?$AAe?$AAa@ 7e55d46c     libucrt:get_qualified_locale.obj
 0002:00004484       ??_C@_1CE@PLHLOMJF@?$AAt?$AAr?$AAi?$AAn?$AAi?$AAd?$AAa?$AAd?$AA?5?$AA?$CG?$AA?5?$AAt?$AAo?$AAb?$AAa@ 7e55d484     libucrt:get_qualified_locale.obj
 0002:000044a8       ??_C@_1BO@MODIMHHI@?$AAu?$AAn?$AAi?$AAt?$AAe?$AAd?$AA?9?$AAk?$AAi?$AAn?$AAg?$AAd?$AAo?$AAm@ 7e55d4a8     libucrt:get_qualified_locale.obj
 0002:000044c8       ??_C@_1BM@FFHJONBJ@?$AAu?$AAn?$AAi?$AAt?$AAe?$AAd?$AA?9?$AAs?$AAt?$AAa?$AAt?$AAe?$AAs@ 7e55d4c8     libucrt:get_qualified_locale.obj
 0002:000044e4       ??_C@_19MPDNHKDG@?$AAu?$AAt?$AAf?$AA8@ 7e55d4e4     libucrt:get_qualified_locale.obj
 0002:000044f0       ??_C@_17DNCLJFIF@?$AAA?$AAC?$AAP@ 7e55d4f0     libucrt:get_qualified_locale.obj
 0002:000044f8       ??_C@_1M@FPEIIFAM@?$AAu?$AAt?$AAf?$AA?9?$AA8@ 7e55d4f8     libucrt:get_qualified_locale.obj
 0002:00004504       ??_C@_17CIKBIHLH@?$AAO?$AAC?$AAP@ 7e55d504     libucrt:get_qualified_locale.obj
 0002:0000450c       ___rglangidNotDefault      7e55d50c     libucrt:getqloc_downlevel.obj
 0002:00004c40       ??_C@_15EMKDOKLE@?$AAa?$AAr@ 7e55dc40     libucrt:lcidtoname_downlevel.obj
 0002:00004c48       ??_C@_15KNPADPLH@?$AAb?$AAg@ 7e55dc48     libucrt:lcidtoname_downlevel.obj
 0002:00004c50       ??_C@_15EDMHLDMO@?$AAc?$AAa@ 7e55dc50     libucrt:lcidtoname_downlevel.obj
 0002:00004c58       ??_C@_1O@BPEAJADD@?$AAz?$AAh?$AA?9?$AAC?$AAH?$AAS@ 7e55dc58     libucrt:lcidtoname_downlevel.obj
 0002:00004c68       ??_C@_15LJNHCMNK@?$AAc?$AAs@ 7e55dc68     libucrt:lcidtoname_downlevel.obj
 0002:00004c70       ??_C@_15FOMCIDHG@?$AAd?$AAa@ 7e55dc70     libucrt:lcidtoname_downlevel.obj
 0002:00004c78       ??_C@_15NBKABECB@?$AAd?$AAe@ 7e55dc78     libucrt:lcidtoname_downlevel.obj
 0002:00004c80       ??_C@_15GHPEIIAO@?$AAe?$AAl@ 7e55dc80     libucrt:lcidtoname_downlevel.obj
 0002:00004c88       ??_C@_15MNPNEAIF@?$AAe?$AAn@ 7e55dc88     libucrt:lcidtoname_downlevel.obj
 0002:00004c90       ??_C@_15GPIOMPMH@?$AAe?$AAs@ 7e55dc90     libucrt:lcidtoname_downlevel.obj
 0002:00004c98       ??_C@_15NGLOAKJC@?$AAf?$AAi@ 7e55dc98     libucrt:lcidtoname_downlevel.obj
 0002:00004ca0       ??_C@_15FBKGNKAM@?$AAf?$AAr@ 7e55dca0     libucrt:lcidtoname_downlevel.obj
 0002:00004ca8       ??_C@_15KGGCNEFK@?$AAh?$AAe@ 7e55dca8     libucrt:lcidtoname_downlevel.obj
 0002:00004cb0       ??_C@_15PGHLIDMF@?$AAh?$AAu@ 7e55dcb0     libucrt:lcidtoname_downlevel.obj
 0002:00004cb8       ??_C@_15BIEMAPLM@?$AAi?$AAs@ 7e55dcb8     libucrt:lcidtoname_downlevel.obj
 0002:00004cc0       ??_C@_15IFJLDHAF@?$AAi?$AAt@ 7e55dcc0     libucrt:lcidtoname_downlevel.obj
 0002:00004cc8       ??_C@_15GEMIOCAG@?$AAj?$AAa@ 7e55dcc8     libucrt:lcidtoname_downlevel.obj
 0002:00004cd0       ??_C@_15EPELEGJA@?$AAk?$AAo@ 7e55dcd0     libucrt:lcidtoname_downlevel.obj
 0002:00004cd8       ??_C@_15NDDHIMN@?$AAn?$AAl@ 7e55dcd8     libucrt:lcidtoname_downlevel.obj
 0002:00004ce0       ??_C@_15BPIGNHCD@?$AAn?$AAo@ 7e55dce0     libucrt:lcidtoname_downlevel.obj
 0002:00004ce8       ??_C@_15DEOPBLCG@?$AAp?$AAl@ 7e55dce8     libucrt:lcidtoname_downlevel.obj
 0002:00004cf0       ??_C@_15KBECGEFG@?$AAp?$AAt@ 7e55dcf0     libucrt:lcidtoname_downlevel.obj
 0002:00004cf8       ??_C@_15GLJCBFMD@?$AAr?$AAo@ 7e55dcf8     libucrt:lcidtoname_downlevel.obj
 0002:00004d00       ??_C@_15FEDGKCDI@?$AAr?$AAu@ 7e55dd00     libucrt:lcidtoname_downlevel.obj
 0002:00004d08       ??_C@_15GLKMLLHM@?$AAh?$AAr@ 7e55dd08     libucrt:lcidtoname_downlevel.obj
 0002:00004d10       ??_C@_15CPKMFBDB@?$AAs?$AAk@ 7e55dd10     libucrt:lcidtoname_downlevel.obj
 0002:00004d18       ??_C@_15BAAIOGMK@?$AAs?$AAq@ 7e55dd18     libucrt:lcidtoname_downlevel.obj
 0002:00004d20       ??_C@_15INNPNOHD@?$AAs?$AAv@ 7e55dd20     libucrt:lcidtoname_downlevel.obj
 0002:00004d28       ??_C@_15CABMMOGH@?$AAt?$AAh@ 7e55dd28     libucrt:lcidtoname_downlevel.obj
 0002:00004d30       ??_C@_15BPLIHJJM@?$AAt?$AAr@ 7e55dd30     libucrt:lcidtoname_downlevel.obj
 0002:00004d38       ??_C@_15NEOEKKDJ@?$AAu?$AAr@ 7e55dd38     libucrt:lcidtoname_downlevel.obj
 0002:00004d40       ??_C@_15NFICGAJK@?$AAi?$AAd@ 7e55dd40     libucrt:lcidtoname_downlevel.obj
 0002:00004d48       ??_C@_15HPJPHDM@?$AAb?$AAe@ 7e55dd48     libucrt:lcidtoname_downlevel.obj
 0002:00004d50       ??_C@_15LCHLGJII@?$AAs?$AAl@ 7e55dd50     libucrt:lcidtoname_downlevel.obj
 0002:00004d58       ??_C@_15PCFJPHHO@?$AAe?$AAt@ 7e55dd58     libucrt:lcidtoname_downlevel.obj
 0002:00004d60       ??_C@_15HPFPGODN@?$AAl?$AAv@ 7e55dd60     libucrt:lcidtoname_downlevel.obj
 0002:00004d68       ??_C@_15NFFGKGLG@?$AAl?$AAt@ 7e55dd68     libucrt:lcidtoname_downlevel.obj
 0002:00004d70       ??_C@_15BDAKCCHN@?$AAf?$AAa@ 7e55dd70     libucrt:lcidtoname_downlevel.obj
 0002:00004d78       ??_C@_15NFGIAIAJ@?$AAv?$AAi@ 7e55dd78     libucrt:lcidtoname_downlevel.obj
 0002:00004d80       ??_C@_15LMKNDMHN@?$AAh?$AAy@ 7e55dd80     libucrt:lcidtoname_downlevel.obj
 0002:00004d88       ??_C@_15IJBHMCFL@?$AAa?$AAz@ 7e55dd88     libucrt:lcidtoname_downlevel.obj
 0002:00004d90       ??_C@_15EKOFJABL@?$AAe?$AAu@ 7e55dd90     libucrt:lcidtoname_downlevel.obj
 0002:00004d98       ??_C@_15BGHADCNK@?$AAm?$AAk@ 7e55dd98     libucrt:lcidtoname_downlevel.obj
 0002:00004da0       ??_C@_15JDNICKHM@?$AAa?$AAf@ 7e55dda0     libucrt:lcidtoname_downlevel.obj
 0002:00004da8       ??_C@_15KPJEDBKD@?$AAk?$AAa@ 7e55dda8     libucrt:lcidtoname_downlevel.obj
 0002:00004db0       ??_C@_15PDNFFFEO@?$AAf?$AAo@ 7e55ddb0     libucrt:lcidtoname_downlevel.obj
 0002:00004db8       ??_C@_15OMLEGLOC@?$AAh?$AAi@ 7e55ddb8     libucrt:lcidtoname_downlevel.obj
 0002:00004dc0       ??_C@_15IDNNENKK@?$AAm?$AAs@ 7e55ddc0     libucrt:lcidtoname_downlevel.obj
 0002:00004dc8       ??_C@_15MACJNBMH@?$AAk?$AAk@ 7e55ddc8     libucrt:lcidtoname_downlevel.obj
 0002:00004dd0       ??_C@_15DKDJEOND@?$AAk?$AAy@ 7e55ddd0     libucrt:lcidtoname_downlevel.obj
 0002:00004dd8       ??_C@_15DFGDLJBG@?$AAs?$AAw@ 7e55ddd8     libucrt:lcidtoname_downlevel.obj
 0002:00004de0       ??_C@_15BBFAICNG@?$AAu?$AAz@ 7e55dde0     libucrt:lcidtoname_downlevel.obj
 0002:00004de8       ??_C@_15DKNDCGEA@?$AAt?$AAt@ 7e55dde8     libucrt:lcidtoname_downlevel.obj
 0002:00004df0       ??_C@_15MGIFMDPL@?$AAp?$AAa@ 7e55ddf0     libucrt:lcidtoname_downlevel.obj
 0002:00004df8       ??_C@_15HCNDBBA@?$AAg?$AAu@ 7e55ddf8     libucrt:lcidtoname_downlevel.obj
 0002:00004e00       ??_C@_15FNBEIBON@?$AAt?$AAa@ 7e55de00     libucrt:lcidtoname_downlevel.obj
 0002:00004e08       ??_C@_15NCHGBGLK@?$AAt?$AAe@ 7e55de08     libucrt:lcidtoname_downlevel.obj
 0002:00004e10       ??_C@_15PHPHCBPF@?$AAk?$AAn@ 7e55de10     libucrt:lcidtoname_downlevel.obj
 0002:00004e18       ??_C@_15DLGBCKMP@?$AAm?$AAr@ 7e55de18     libucrt:lcidtoname_downlevel.obj
 0002:00004e20       ??_C@_15EABBLBFF@?$AAs?$AAa@ 7e55de20     libucrt:lcidtoname_downlevel.obj
 0002:00004e28       ??_C@_15CBKOMCOI@?$AAm?$AAn@ 7e55de28     libucrt:lcidtoname_downlevel.obj
 0002:00004e30       ??_C@_15CKDMCJAF@?$AAg?$AAl@ 7e55de30     libucrt:lcidtoname_downlevel.obj
 0002:00004e38       ??_C@_17CNJFBPG@?$AAk?$AAo?$AAk@ 7e55de38     libucrt:lcidtoname_downlevel.obj
 0002:00004e40       ??_C@_17FFBJICPL@?$AAs?$AAy?$AAr@ 7e55de40     libucrt:lcidtoname_downlevel.obj
 0002:00004e48       ??_C@_17KPNDCPAF@?$AAd?$AAi?$AAv@ 7e55de48     libucrt:lcidtoname_downlevel.obj
 0002:00004e50       ??_C@_1M@OKAHONE@?$AAa?$AAr?$AA?9?$AAS?$AAA@ 7e55de50     libucrt:lcidtoname_downlevel.obj
 0002:00004e5c       ??_C@_1M@FFFIGIGK@?$AAb?$AAg?$AA?9?$AAB?$AAG@ 7e55de5c     libucrt:lcidtoname_downlevel.obj
 0002:00004e68       ??_C@_1M@BJNKEDC@?$AAc?$AAa?$AA?9?$AAE?$AAS@ 7e55de68     libucrt:lcidtoname_downlevel.obj
 0002:00004e74       ??_C@_1M@IJJHFJHA@?$AAc?$AAs?$AA?9?$AAC?$AAZ@ 7e55de74     libucrt:lcidtoname_downlevel.obj
 0002:00004e80       ??_C@_1M@CLPEOBGI@?$AAd?$AAa?$AA?9?$AAD?$AAK@ 7e55de80     libucrt:lcidtoname_downlevel.obj
 0002:00004e8c       ??_C@_1M@MCMADGCB@?$AAd?$AAe?$AA?9?$AAD?$AAE@ 7e55de8c     libucrt:lcidtoname_downlevel.obj
 0002:00004e98       ??_C@_1M@OOCKEMAM@?$AAe?$AAl?$AA?9?$AAG?$AAR@ 7e55de98     libucrt:lcidtoname_downlevel.obj
 0002:00004ea4       ??_C@_1M@DDNJFGID@?$AAf?$AAi?$AA?9?$AAF?$AAI@ 7e55dea4     libucrt:lcidtoname_downlevel.obj
 0002:00004eb0       ??_C@_1M@GLIPPMAC@?$AAf?$AAr?$AA?9?$AAF?$AAR@ 7e55deb0     libucrt:lcidtoname_downlevel.obj
 0002:00004ebc       ??_C@_1M@GFMCHPE@?$AAh?$AAe?$AA?9?$AAI?$AAL@ 7e55debc     libucrt:lcidtoname_downlevel.obj
 0002:00004ec8       ??_C@_1M@MHLPGNKM@?$AAh?$AAu?$AA?9?$AAH?$AAU@ 7e55dec8     libucrt:lcidtoname_downlevel.obj
 0002:00004ed4       ??_C@_1M@LPDDNNPN@?$AAi?$AAs?$AA?9?$AAI?$AAS@ 7e55ded4     libucrt:lcidtoname_downlevel.obj
 0002:00004ee0       ??_C@_1M@MADIPODN@?$AAi?$AAt?$AA?9?$AAI?$AAT@ 7e55dee0     libucrt:lcidtoname_downlevel.obj
 0002:00004eec       ??_C@_1M@IHBJJGG@?$AAn?$AAl?$AA?9?$AAN?$AAL@ 7e55deec     libucrt:lcidtoname_downlevel.obj
 0002:00004ef8       ??_C@_1M@EANAGDL@?$AAn?$AAb?$AA?9?$AAN?$AAO@ 7e55def8     libucrt:lcidtoname_downlevel.obj
 0002:00004f04       ??_C@_1M@NEIEMEGP@?$AAp?$AAl?$AA?9?$AAP?$AAL@ 7e55df04     libucrt:lcidtoname_downlevel.obj
 0002:00004f10       ??_C@_1M@BOCFIGEP@?$AAp?$AAt?$AA?9?$AAB?$AAR@ 7e55df10     libucrt:lcidtoname_downlevel.obj
 0002:00004f1c       ??_C@_1M@IMPFOPBG@?$AAr?$AAo?$AA?9?$AAR?$AAO@ 7e55df1c     libucrt:lcidtoname_downlevel.obj
 0002:00004f28       ??_C@_1M@IDNNEJMM@?$AAr?$AAu?$AA?9?$AAR?$AAU@ 7e55df28     libucrt:lcidtoname_downlevel.obj
 0002:00004f34       ??_C@_1M@LILEEOGM@?$AAh?$AAr?$AA?9?$AAH?$AAR@ 7e55df34     libucrt:lcidtoname_downlevel.obj
 0002:00004f40       ??_C@_1M@FKIFEHPB@?$AAs?$AAk?$AA?9?$AAS?$AAK@ 7e55df40     libucrt:lcidtoname_downlevel.obj
 0002:00004f4c       ??_C@_1M@LJMAMNPJ@?$AAs?$AAq?$AA?9?$AAA?$AAL@ 7e55df4c     libucrt:lcidtoname_downlevel.obj
 0002:00004f58       ??_C@_1M@GIAKDKJK@?$AAs?$AAv?$AA?9?$AAS?$AAE@ 7e55df58     libucrt:lcidtoname_downlevel.obj
 0002:00004f64       ??_C@_1M@MKJKIKCL@?$AAt?$AAh?$AA?9?$AAT?$AAH@ 7e55df64     libucrt:lcidtoname_downlevel.obj
 0002:00004f70       ??_C@_1M@MFLCCMPB@?$AAt?$AAr?$AA?9?$AAT?$AAR@ 7e55df70     libucrt:lcidtoname_downlevel.obj
 0002:00004f7c       ??_C@_1M@OIJHDKJN@?$AAu?$AAr?$AA?9?$AAP?$AAK@ 7e55df7c     libucrt:lcidtoname_downlevel.obj
 0002:00004f88       ??_C@_1M@LHIPCIEK@?$AAi?$AAd?$AA?9?$AAI?$AAD@ 7e55df88     libucrt:lcidtoname_downlevel.obj
 0002:00004f94       ??_C@_1M@MFMOBGI@?$AAu?$AAk?$AA?9?$AAU?$AAA@ 7e55df94     libucrt:lcidtoname_downlevel.obj
 0002:00004fa0       ??_C@_1M@OBGLJIPL@?$AAb?$AAe?$AA?9?$AAB?$AAY@ 7e55dfa0     libucrt:lcidtoname_downlevel.obj
 0002:00004fac       ??_C@_1M@BCFAJEAD@?$AAs?$AAl?$AA?9?$AAS?$AAI@ 7e55dfac     libucrt:lcidtoname_downlevel.obj
 0002:00004fb8       ??_C@_1M@FKFFEDDN@?$AAe?$AAt?$AA?9?$AAE?$AAE@ 7e55dfb8     libucrt:lcidtoname_downlevel.obj
 0002:00004fc4       ??_C@_1M@KGKKAACI@?$AAl?$AAv?$AA?9?$AAL?$AAV@ 7e55dfc4     libucrt:lcidtoname_downlevel.obj
 0002:00004fd0       ??_C@_1M@IFGBIJO@?$AAl?$AAt?$AA?9?$AAL?$AAT@ 7e55dfd0     libucrt:lcidtoname_downlevel.obj
 0002:00004fdc       ??_C@_1M@FGEAHEDM@?$AAf?$AAa?$AA?9?$AAI?$AAR@ 7e55dfdc     libucrt:lcidtoname_downlevel.obj
 0002:00004fe8       ??_C@_1M@KBMAIBFN@?$AAv?$AAi?$AA?9?$AAV?$AAN@ 7e55dfe8     libucrt:lcidtoname_downlevel.obj
 0002:00004ff4       ??_C@_1M@GPCBKDJK@?$AAh?$AAy?$AA?9?$AAA?$AAM@ 7e55dff4     libucrt:lcidtoname_downlevel.obj
 0002:00005000       ??_C@_1BG@BECMDDJB@?$AAa?$AAz?$AA?9?$AAA?$AAZ?$AA?9?$AAL?$AAa?$AAt?$AAn@ 7e55e000     libucrt:lcidtoname_downlevel.obj
 0002:00005018       ??_C@_1M@MAOFCAEA@?$AAe?$AAu?$AA?9?$AAE?$AAS@ 7e55e018     libucrt:lcidtoname_downlevel.obj
 0002:00005024       ??_C@_1M@IGHABKPI@?$AAm?$AAk?$AA?9?$AAM?$AAK@ 7e55e024     libucrt:lcidtoname_downlevel.obj
 0002:00005030       ??_C@_1M@IAIGNEJG@?$AAt?$AAn?$AA?9?$AAZ?$AAA@ 7e55e030     libucrt:lcidtoname_downlevel.obj
 0002:0000503c       ??_C@_1M@IIJCOJFA@?$AAx?$AAh?$AA?9?$AAZ?$AAA@ 7e55e03c     libucrt:lcidtoname_downlevel.obj
 0002:00005048       ??_C@_1M@LGPJHNJH@?$AAz?$AAu?$AA?9?$AAZ?$AAA@ 7e55e048     libucrt:lcidtoname_downlevel.obj
 0002:00005054       ??_C@_1M@HOKAOIO@?$AAa?$AAf?$AA?9?$AAZ?$AAA@ 7e55e054     libucrt:lcidtoname_downlevel.obj
 0002:00005060       ??_C@_1M@DPCLHLIE@?$AAk?$AAa?$AA?9?$AAG?$AAE@ 7e55e060     libucrt:lcidtoname_downlevel.obj
 0002:0000506c       ??_C@_1M@BLKMHJBI@?$AAf?$AAo?$AA?9?$AAF?$AAO@ 7e55e06c     libucrt:lcidtoname_downlevel.obj
 0002:00005078       ??_C@_1M@LGGJAPPB@?$AAh?$AAi?$AA?9?$AAI?$AAN@ 7e55e078     libucrt:lcidtoname_downlevel.obj
 0002:00005084       ??_C@_1M@FIKPIHFE@?$AAm?$AAt?$AA?9?$AAM?$AAT@ 7e55e084     libucrt:lcidtoname_downlevel.obj
 0002:00005090       ??_C@_1M@HEGGPBFA@?$AAs?$AAe?$AA?9?$AAN?$AAO@ 7e55e090     libucrt:lcidtoname_downlevel.obj
 0002:0000509c       ??_C@_1M@EIBJEEPA@?$AAm?$AAs?$AA?9?$AAM?$AAY@ 7e55e09c     libucrt:lcidtoname_downlevel.obj
 0002:000050a8       ??_C@_1M@FHLBGMPP@?$AAk?$AAk?$AA?9?$AAK?$AAZ@ 7e55e0a8     libucrt:lcidtoname_downlevel.obj
 0002:000050b4       ??_C@_1M@NGJJLCGI@?$AAk?$AAy?$AA?9?$AAK?$AAG@ 7e55e0b4     libucrt:lcidtoname_downlevel.obj
 0002:000050c0       ??_C@_1M@GIENNBFC@?$AAs?$AAw?$AA?9?$AAK?$AAE@ 7e55e0c0     libucrt:lcidtoname_downlevel.obj
 0002:000050cc       ??_C@_1BG@NDGMJIMJ@?$AAu?$AAz?$AA?9?$AAU?$AAZ?$AA?9?$AAL?$AAa?$AAt?$AAn@ 7e55e0cc     libucrt:lcidtoname_downlevel.obj
 0002:000050e4       ??_C@_1M@IDCCIHBC@?$AAt?$AAt?$AA?9?$AAR?$AAU@ 7e55e0e4     libucrt:lcidtoname_downlevel.obj
 0002:000050f0       ??_C@_1M@LOICPMOJ@?$AAb?$AAn?$AA?9?$AAI?$AAN@ 7e55e0f0     libucrt:lcidtoname_downlevel.obj
 0002:000050fc       ??_C@_1M@KPKKNEAH@?$AAp?$AAa?$AA?9?$AAI?$AAN@ 7e55e0fc     libucrt:lcidtoname_downlevel.obj
 0002:00005108       ??_C@_1M@PJGPPBOG@?$AAg?$AAu?$AA?9?$AAI?$AAN@ 7e55e108     libucrt:lcidtoname_downlevel.obj
 0002:00005114       ??_C@_1M@KMKMOPHI@?$AAt?$AAa?$AA?9?$AAI?$AAN@ 7e55e114     libucrt:lcidtoname_downlevel.obj
 0002:00005120       ??_C@_1M@KFEHEPAC@?$AAt?$AAe?$AA?9?$AAI?$AAN@ 7e55e120     libucrt:lcidtoname_downlevel.obj
 0002:0000512c       ??_C@_1M@CDCLMGHI@?$AAk?$AAn?$AA?9?$AAI?$AAN@ 7e55e12c     libucrt:lcidtoname_downlevel.obj
 0002:00005138       ??_C@_1M@MIODLDKF@?$AAm?$AAl?$AA?9?$AAI?$AAN@ 7e55e138     libucrt:lcidtoname_downlevel.obj
 0002:00005144       ??_C@_1M@PBIEACPO@?$AAm?$AAr?$AA?9?$AAI?$AAN@ 7e55e144     libucrt:lcidtoname_downlevel.obj
 0002:00005150       ??_C@_1M@NIDEAGPH@?$AAs?$AAa?$AA?9?$AAI?$AAN@ 7e55e150     libucrt:lcidtoname_downlevel.obj
 0002:0000515c       ??_C@_1M@FHIHCBIO@?$AAm?$AAn?$AA?9?$AAM?$AAN@ 7e55e15c     libucrt:lcidtoname_downlevel.obj
 0002:00005168       ??_C@_1M@JAIJPENP@?$AAc?$AAy?$AA?9?$AAG?$AAB@ 7e55e168     libucrt:lcidtoname_downlevel.obj
 0002:00005174       ??_C@_1M@PHGFBEPN@?$AAg?$AAl?$AA?9?$AAE?$AAS@ 7e55e174     libucrt:lcidtoname_downlevel.obj
 0002:00005180       ??_C@_1O@KPIPDNCP@?$AAk?$AAo?$AAk?$AA?9?$AAI?$AAN@ 7e55e180     libucrt:lcidtoname_downlevel.obj
 0002:00005190       ??_C@_1O@KNHJLDJA@?$AAs?$AAy?$AAr?$AA?9?$AAS?$AAY@ 7e55e190     libucrt:lcidtoname_downlevel.obj
 0002:000051a0       ??_C@_1O@MKEKBLAH@?$AAd?$AAi?$AAv?$AA?9?$AAM?$AAV@ 7e55e1a0     libucrt:lcidtoname_downlevel.obj
 0002:000051b0       ??_C@_1O@OHDCKDDF@?$AAq?$AAu?$AAz?$AA?9?$AAB?$AAO@ 7e55e1b0     libucrt:lcidtoname_downlevel.obj
 0002:000051c0       ??_C@_1M@LEPJNLFD@?$AAn?$AAs?$AA?9?$AAZ?$AAA@ 7e55e1c0     libucrt:lcidtoname_downlevel.obj
 0002:000051cc       ??_C@_1M@OMLEIIJB@?$AAm?$AAi?$AA?9?$AAN?$AAZ@ 7e55e1cc     libucrt:lcidtoname_downlevel.obj
 0002:000051d8       ??_C@_1M@PMPEAILG@?$AAa?$AAr?$AA?9?$AAI?$AAQ@ 7e55e1d8     libucrt:lcidtoname_downlevel.obj
 0002:000051e4       ??_C@_1M@CNKPNOEE@?$AAd?$AAe?$AA?9?$AAC?$AAH@ 7e55e1e4     libucrt:lcidtoname_downlevel.obj
 0002:000051f0       ??_C@_1M@LKMGMLKO@?$AAe?$AAn?$AA?9?$AAG?$AAB@ 7e55e1f0     libucrt:lcidtoname_downlevel.obj
 0002:000051fc       ??_C@_1M@PGKJFFGL@?$AAe?$AAs?$AA?9?$AAM?$AAX@ 7e55e1fc     libucrt:lcidtoname_downlevel.obj
 0002:00005208       ??_C@_1M@DNNANBDC@?$AAf?$AAr?$AA?9?$AAB?$AAE@ 7e55e208     libucrt:lcidtoname_downlevel.obj
 0002:00005214       ??_C@_1M@HLGMDFHM@?$AAi?$AAt?$AA?9?$AAC?$AAH@ 7e55e214     libucrt:lcidtoname_downlevel.obj
 0002:00005220       ??_C@_1M@CLLBGJH@?$AAn?$AAl?$AA?9?$AAB?$AAE@ 7e55e220     libucrt:lcidtoname_downlevel.obj
 0002:0000522c       ??_C@_1M@BODBOGLF@?$AAn?$AAn?$AA?9?$AAN?$AAO@ 7e55e22c     libucrt:lcidtoname_downlevel.obj
 0002:00005238       ??_C@_1M@HFFAHKAD@?$AAp?$AAt?$AA?9?$AAP?$AAT@ 7e55e238     libucrt:lcidtoname_downlevel.obj
 0002:00005244       ??_C@_1BG@LNOAKHIE@?$AAs?$AAr?$AA?9?$AAS?$AAP?$AA?9?$AAL?$AAa?$AAt?$AAn@ 7e55e244     libucrt:lcidtoname_downlevel.obj
 0002:0000525c       ??_C@_1M@HBMHBGAK@?$AAs?$AAv?$AA?9?$AAF?$AAI@ 7e55e25c     libucrt:lcidtoname_downlevel.obj
 0002:00005268       ??_C@_1BG@DGCJGJBE@?$AAa?$AAz?$AA?9?$AAA?$AAZ?$AA?9?$AAC?$AAy?$AAr?$AAl@ 7e55e268     libucrt:lcidtoname_downlevel.obj
 0002:00005280       ??_C@_1M@KEJDAAHB@?$AAs?$AAe?$AA?9?$AAS?$AAE@ 7e55e280     libucrt:lcidtoname_downlevel.obj
 0002:0000528c       ??_C@_1M@HEIBJJAD@?$AAm?$AAs?$AA?9?$AAB?$AAN@ 7e55e28c     libucrt:lcidtoname_downlevel.obj
 0002:00005298       ??_C@_1BG@PBGJMCEM@?$AAu?$AAz?$AA?9?$AAU?$AAZ?$AA?9?$AAC?$AAy?$AAr?$AAl@ 7e55e298     libucrt:lcidtoname_downlevel.obj
 0002:000052b0       ??_C@_1O@LAOBCMDF@?$AAq?$AAu?$AAz?$AA?9?$AAE?$AAC@ 7e55e2b0     libucrt:lcidtoname_downlevel.obj
 0002:000052c0       ??_C@_1M@POEEMAIO@?$AAa?$AAr?$AA?9?$AAE?$AAG@ 7e55e2c0     libucrt:lcidtoname_downlevel.obj
 0002:000052cc       ??_C@_1M@EFAKDEDL@?$AAz?$AAh?$AA?9?$AAH?$AAK@ 7e55e2cc     libucrt:lcidtoname_downlevel.obj
 0002:000052d8       ??_C@_1M@HKKIJHGI@?$AAd?$AAe?$AA?9?$AAA?$AAT@ 7e55e2d8     libucrt:lcidtoname_downlevel.obj
 0002:000052e4       ??_C@_1M@KBFBEHJF@?$AAe?$AAn?$AA?9?$AAA?$AAU@ 7e55e2e4     libucrt:lcidtoname_downlevel.obj
 0002:000052f0       ??_C@_1M@MNPLFAAH@?$AAe?$AAs?$AA?9?$AAE?$AAS@ 7e55e2f0     libucrt:lcidtoname_downlevel.obj
 0002:000052fc       ??_C@_1M@HJOOJFMA@?$AAf?$AAr?$AA?9?$AAC?$AAA@ 7e55e2fc     libucrt:lcidtoname_downlevel.obj
 0002:00005308       ??_C@_1BG@JPOFPNAB@?$AAs?$AAr?$AA?9?$AAS?$AAP?$AA?9?$AAC?$AAy?$AAr?$AAl@ 7e55e308     libucrt:lcidtoname_downlevel.obj
 0002:00005320       ??_C@_1M@LNFOCMOB@?$AAs?$AAe?$AA?9?$AAF?$AAI@ 7e55e320     libucrt:lcidtoname_downlevel.obj
 0002:0000532c       ??_C@_1O@MGJBOAMB@?$AAq?$AAu?$AAz?$AA?9?$AAP?$AAE@ 7e55e32c     libucrt:lcidtoname_downlevel.obj
 0002:0000533c       ??_C@_1M@GJINLBOK@?$AAa?$AAr?$AA?9?$AAL?$AAY@ 7e55e33c     libucrt:lcidtoname_downlevel.obj
 0002:00005348       ??_C@_1M@GGMNHJNL@?$AAz?$AAh?$AA?9?$AAS?$AAG@ 7e55e348     libucrt:lcidtoname_downlevel.obj
 0002:00005354       ??_C@_1M@HOIKODND@?$AAd?$AAe?$AA?9?$AAL?$AAU@ 7e55e354     libucrt:lcidtoname_downlevel.obj
 0002:00005360       ??_C@_1M@DDOCCGFG@?$AAe?$AAn?$AA?9?$AAC?$AAA@ 7e55e360     libucrt:lcidtoname_downlevel.obj
 0002:0000536c       ??_C@_1M@BNOEMJLF@?$AAe?$AAs?$AA?9?$AAG?$AAT@ 7e55e36c     libucrt:lcidtoname_downlevel.obj
 0002:00005378       ??_C@_1M@EOGNKEK@?$AAf?$AAr?$AA?9?$AAC?$AAH@ 7e55e378     libucrt:lcidtoname_downlevel.obj
 0002:00005384       ??_C@_1M@FLIDJFHL@?$AAh?$AAr?$AA?9?$AAB?$AAA@ 7e55e384     libucrt:lcidtoname_downlevel.obj
 0002:00005390       ??_C@_1O@FMCELNAJ@?$AAs?$AAm?$AAj?$AA?9?$AAN?$AAO@ 7e55e390     libucrt:lcidtoname_downlevel.obj
 0002:000053a0       ??_C@_1M@JHGLJMGJ@?$AAa?$AAr?$AA?9?$AAD?$AAZ@ 7e55e3a0     libucrt:lcidtoname_downlevel.obj
 0002:000053ac       ??_C@_1M@JKKFDCNP@?$AAz?$AAh?$AA?9?$AAM?$AAO@ 7e55e3ac     libucrt:lcidtoname_downlevel.obj
 0002:000053b8       ??_C@_1M@GEEFALPE@?$AAd?$AAe?$AA?9?$AAL?$AAI@ 7e55e3b8     libucrt:lcidtoname_downlevel.obj
 0002:000053c4       ??_C@_1M@IGEOFBG@?$AAe?$AAn?$AA?9?$AAN?$AAZ@ 7e55e3c4     libucrt:lcidtoname_downlevel.obj
 0002:000053d0       ??_C@_1M@KDBONEHP@?$AAe?$AAs?$AA?9?$AAC?$AAR@ 7e55e3d0     libucrt:lcidtoname_downlevel.obj
 0002:000053dc       ??_C@_1M@FHMDOHNN@?$AAf?$AAr?$AA?9?$AAL?$AAU@ 7e55e3dc     libucrt:lcidtoname_downlevel.obj
 0002:000053e8       ??_C@_1BG@NFKKMAFG@?$AAb?$AAs?$AA?9?$AAB?$AAA?$AA?9?$AAL?$AAa?$AAt?$AAn@ 7e55e3e8     libucrt:lcidtoname_downlevel.obj
 0002:00005400       ??_C@_1O@IMNBEMCI@?$AAs?$AAm?$AAj?$AA?9?$AAS?$AAE@ 7e55e400     libucrt:lcidtoname_downlevel.obj
 0002:00005410       ??_C@_1M@DHHMBNDP@?$AAa?$AAr?$AA?9?$AAM?$AAA@ 7e55e410     libucrt:lcidtoname_downlevel.obj
 0002:0000541c       ??_C@_1M@BNBLJCGH@?$AAe?$AAn?$AA?9?$AAI?$AAE@ 7e55e41c     libucrt:lcidtoname_downlevel.obj
 0002:00005428       ??_C@_1M@GEPAFMDL@?$AAe?$AAs?$AA?9?$AAP?$AAA@ 7e55e428     libucrt:lcidtoname_downlevel.obj
 0002:00005434       ??_C@_1M@OJONDMDL@?$AAf?$AAr?$AA?9?$AAM?$AAC@ 7e55e434     libucrt:lcidtoname_downlevel.obj
 0002:00005440       ??_C@_1BG@OBCNFJB@?$AAs?$AAr?$AA?9?$AAB?$AAA?$AA?9?$AAL?$AAa?$AAt?$AAn@ 7e55e440     libucrt:lcidtoname_downlevel.obj
 0002:00005458       ??_C@_1O@KEMEEGPO@?$AAs?$AAm?$AAa?$AA?9?$AAN?$AAO@ 7e55e458     libucrt:lcidtoname_downlevel.obj
 0002:00005468       ??_C@_1M@ELMGFODK@?$AAa?$AAr?$AA?9?$AAT?$AAN@ 7e55e468     libucrt:lcidtoname_downlevel.obj
 0002:00005474       ??_C@_1M@BHDLHFAF@?$AAe?$AAn?$AA?9?$AAZ?$AAA@ 7e55e474     libucrt:lcidtoname_downlevel.obj
 0002:00005480       ??_C@_1M@BMGIGLIF@?$AAe?$AAs?$AA?9?$AAD?$AAO@ 7e55e480     libucrt:lcidtoname_downlevel.obj
 0002:0000548c       ??_C@_1BG@CMBHIPBE@?$AAs?$AAr?$AA?9?$AAB?$AAA?$AA?9?$AAC?$AAy?$AAr?$AAl@ 7e55e48c     libucrt:lcidtoname_downlevel.obj
 0002:000054a4       ??_C@_1O@HEDBLHNP@?$AAs?$AAm?$AAa?$AA?9?$AAS?$AAE@ 7e55e4a4     libucrt:lcidtoname_downlevel.obj
 0002:000054b4       ??_C@_1M@DAGCADIM@?$AAa?$AAr?$AA?9?$AAO?$AAM@ 7e55e4b4     libucrt:lcidtoname_downlevel.obj
 0002:000054c0       ??_C@_1M@FODLMICG@?$AAe?$AAn?$AA?9?$AAJ?$AAM@ 7e55e4c0     libucrt:lcidtoname_downlevel.obj
 0002:000054cc       ??_C@_1M@DNMLCIHB@?$AAe?$AAs?$AA?9?$AAV?$AAE@ 7e55e4cc     libucrt:lcidtoname_downlevel.obj
 0002:000054d8       ??_C@_1O@EOKHMKJK@?$AAs?$AAm?$AAs?$AA?9?$AAF?$AAI@ 7e55e4d8     libucrt:lcidtoname_downlevel.obj
 0002:000054e8       ??_C@_1M@CAFJMKOF@?$AAa?$AAr?$AA?9?$AAY?$AAE@ 7e55e4e8     libucrt:lcidtoname_downlevel.obj
 0002:000054f4       ??_C@_1M@CBFHIJLI@?$AAe?$AAn?$AA?9?$AAC?$AAB@ 7e55e4f4     libucrt:lcidtoname_downlevel.obj
 0002:00005500       ??_C@_1M@BGNFLDN@?$AAe?$AAs?$AA?9?$AAC?$AAO@ 7e55e500     libucrt:lcidtoname_downlevel.obj
 0002:0000550c       ??_C@_1O@JMPHMAMC@?$AAs?$AAm?$AAn?$AA?9?$AAF?$AAI@ 7e55e50c     libucrt:lcidtoname_downlevel.obj
 0002:0000551c       ??_C@_1M@JLANABKE@?$AAa?$AAr?$AA?9?$AAS?$AAY@ 7e55e51c     libucrt:lcidtoname_downlevel.obj
 0002:00005528       ??_C@_1M@HPKGCFGN@?$AAe?$AAn?$AA?9?$AAB?$AAZ@ 7e55e528     libucrt:lcidtoname_downlevel.obj
 0002:00005534       ??_C@_1M@OLJCMLGM@?$AAe?$AAs?$AA?9?$AAP?$AAE@ 7e55e534     libucrt:lcidtoname_downlevel.obj
 0002:00005540       ??_C@_1M@MKKGFKLE@?$AAa?$AAr?$AA?9?$AAJ?$AAO@ 7e55e540     libucrt:lcidtoname_downlevel.obj
 0002:0000554c       ??_C@_1M@EKPGLDNI@?$AAe?$AAn?$AA?9?$AAT?$AAT@ 7e55e54c     libucrt:lcidtoname_downlevel.obj
 0002:00005558       ??_C@_1M@OONGHFHE@?$AAe?$AAs?$AA?9?$AAA?$AAR@ 7e55e558     libucrt:lcidtoname_downlevel.obj
 0002:00005564       ??_C@_1M@OOJFGBHE@?$AAa?$AAr?$AA?9?$AAL?$AAB@ 7e55e564     libucrt:lcidtoname_downlevel.obj
 0002:00005570       ??_C@_1M@GCEJHNEG@?$AAe?$AAn?$AA?9?$AAZ?$AAW@ 7e55e570     libucrt:lcidtoname_downlevel.obj
 0002:0000557c       ??_C@_1M@JNOCAHJI@?$AAe?$AAs?$AA?9?$AAE?$AAC@ 7e55e57c     libucrt:lcidtoname_downlevel.obj
 0002:00005588       ??_C@_1M@JEFHPGGB@?$AAa?$AAr?$AA?9?$AAK?$AAW@ 7e55e588     libucrt:lcidtoname_downlevel.obj
 0002:00005594       ??_C@_1M@MLKIBJOJ@?$AAe?$AAn?$AA?9?$AAP?$AAH@ 7e55e594     libucrt:lcidtoname_downlevel.obj
 0002:000055a0       ??_C@_1M@BDNIPEND@?$AAe?$AAs?$AA?9?$AAC?$AAL@ 7e55e5a0     libucrt:lcidtoname_downlevel.obj
 0002:000055ac       ??_C@_1M@MPNMEKBD@?$AAa?$AAr?$AA?9?$AAA?$AAE@ 7e55e5ac     libucrt:lcidtoname_downlevel.obj
 0002:000055b8       ??_C@_1M@KBJALCPI@?$AAe?$AAs?$AA?9?$AAU?$AAY@ 7e55e5b8     libucrt:lcidtoname_downlevel.obj
 0002:000055c4       ??_C@_1M@LLCCOAGA@?$AAa?$AAr?$AA?9?$AAB?$AAH@ 7e55e5c4     libucrt:lcidtoname_downlevel.obj
 0002:000055d0       ??_C@_1M@PBFNCDEL@?$AAe?$AAs?$AA?9?$AAP?$AAY@ 7e55e5d0     libucrt:lcidtoname_downlevel.obj
 0002:000055dc       ??_C@_1M@EDGINPNP@?$AAa?$AAr?$AA?9?$AAQ?$AAA@ 7e55e5dc     libucrt:lcidtoname_downlevel.obj
 0002:000055e8       ??_C@_1M@MKDBIIJI@?$AAe?$AAs?$AA?9?$AAB?$AAO@ 7e55e5e8     libucrt:lcidtoname_downlevel.obj
 0002:000055f4       ??_C@_1M@CPKKEBLD@?$AAe?$AAs?$AA?9?$AAS?$AAV@ 7e55e5f4     libucrt:lcidtoname_downlevel.obj
 0002:00005600       ??_C@_1M@NDBGMMJL@?$AAe?$AAs?$AA?9?$AAH?$AAN@ 7e55e600     libucrt:lcidtoname_downlevel.obj
 0002:0000560c       ??_C@_1M@JIJIBHDP@?$AAe?$AAs?$AA?9?$AAN?$AAI@ 7e55e60c     libucrt:lcidtoname_downlevel.obj
 0002:00005618       ??_C@_1M@CGFMKEEK@?$AAe?$AAs?$AA?9?$AAP?$AAR@ 7e55e618     libucrt:lcidtoname_downlevel.obj
 0002:00005624       ??_C@_1O@ICJHKIIK@?$AAz?$AAh?$AA?9?$AAC?$AAH?$AAT@ 7e55e624     libucrt:lcidtoname_downlevel.obj
 0002:00005634       ??_C@_15CLNEJCE@?$AAs?$AAr@ 7e55e634     libucrt:lcidtoname_downlevel.obj
 0002:00005d60       ??_C@_1M@KAHEKEIG@?$AAa?$AAf?$AA?9?$AAz?$AAa@ 7e55ed60     libucrt:lcidtoname_downlevel.obj
 0002:00005d6c       ??_C@_1M@GIECOABL@?$AAa?$AAr?$AA?9?$AAa?$AAe@ 7e55ed6c     libucrt:lcidtoname_downlevel.obj
 0002:00005d78       ??_C@_1M@BMLMEKGI@?$AAa?$AAr?$AA?9?$AAb?$AAh@ 7e55ed78     libucrt:lcidtoname_downlevel.obj
 0002:00005d84       ??_C@_1M@DAPFDGGB@?$AAa?$AAr?$AA?9?$AAd?$AAz@ 7e55ed84     libucrt:lcidtoname_downlevel.obj
 0002:00005d90       ??_C@_1M@FJNKGKIG@?$AAa?$AAr?$AA?9?$AAe?$AAg@ 7e55ed90     libucrt:lcidtoname_downlevel.obj
 0002:00005d9c       ??_C@_1M@FLGKKCLO@?$AAa?$AAr?$AA?9?$AAi?$AAq@ 7e55ed9c     libucrt:lcidtoname_downlevel.obj
 0002:00005da8       ??_C@_1M@GNDIPALM@?$AAa?$AAr?$AA?9?$AAj?$AAo@ 7e55eda8     libucrt:lcidtoname_downlevel.obj
 0002:00005db4       ??_C@_1M@DDMJFMGJ@?$AAa?$AAr?$AA?9?$AAk?$AAw@ 7e55edb4     libucrt:lcidtoname_downlevel.obj
 0002:00005dc0       ??_C@_1M@EJALMLHM@?$AAa?$AAr?$AA?9?$AAl?$AAb@ 7e55edc0     libucrt:lcidtoname_downlevel.obj
 0002:00005dcc       ??_C@_1M@MOBDBLOC@?$AAa?$AAr?$AA?9?$AAl?$AAy@ 7e55edcc     libucrt:lcidtoname_downlevel.obj
 0002:00005dd8       ??_C@_1M@JAOCLHDH@?$AAa?$AAr?$AA?9?$AAm?$AAa@ 7e55edd8     libucrt:lcidtoname_downlevel.obj
 0002:00005de4       ??_C@_1M@JHPMKJIE@?$AAa?$AAr?$AA?9?$AAo?$AAm@ 7e55ede4     libucrt:lcidtoname_downlevel.obj
 0002:00005df0       ??_C@_1M@OEPGHFNH@?$AAa?$AAr?$AA?9?$AAq?$AAa@ 7e55edf0     libucrt:lcidtoname_downlevel.obj
 0002:00005dfc       ??_C@_1M@KJDONENM@?$AAa?$AAr?$AA?9?$AAs?$AAa@ 7e55edfc     libucrt:lcidtoname_downlevel.obj
 0002:00005e08       ??_C@_1M@DMJDKLKM@?$AAa?$AAr?$AA?9?$AAs?$AAy@ 7e55ee08     libucrt:lcidtoname_downlevel.obj
 0002:00005e14       ??_C@_1M@OMFIPEDC@?$AAa?$AAr?$AA?9?$AAt?$AAn@ 7e55ee14     libucrt:lcidtoname_downlevel.obj
 0002:00005e20       ??_C@_1M@IHMHGAON@?$AAa?$AAr?$AA?9?$AAy?$AAe@ 7e55ee20     libucrt:lcidtoname_downlevel.obj
 0002:00005e2c       ??_C@_1BG@KDCPGJGB@?$AAa?$AAz?$AA?9?$AAa?$AAz?$AA?9?$AAc?$AAy?$AAr?$AAl@ 7e55ee2c     libucrt:lcidtoname_downlevel.obj
 0002:00005e44       ??_C@_1BG@IBCKDDOE@?$AAa?$AAz?$AA?9?$AAa?$AAz?$AA?9?$AAl?$AAa?$AAt?$AAn@ 7e55ee44     libucrt:lcidtoname_downlevel.obj
 0002:00005e5c       ??_C@_1M@EGPFDCPD@?$AAb?$AAe?$AA?9?$AAb?$AAy@ 7e55ee5c     libucrt:lcidtoname_downlevel.obj
 0002:00005e68       ??_C@_1M@PCMGMCGC@?$AAb?$AAg?$AA?9?$AAb?$AAg@ 7e55ee68     libucrt:lcidtoname_downlevel.obj
 0002:00005e74       ??_C@_1M@BJBMFGOB@?$AAb?$AAn?$AA?9?$AAi?$AAn@ 7e55ee74     libucrt:lcidtoname_downlevel.obj
 0002:00005e80       ??_C@_1BG@EAKMMACD@?$AAb?$AAs?$AA?9?$AAb?$AAa?$AA?9?$AAl?$AAa?$AAt?$AAn@ 7e55ee80     libucrt:lcidtoname_downlevel.obj
 0002:00005e98       ??_C@_1M@KGADAODK@?$AAc?$AAa?$AA?9?$AAe?$AAs@ 7e55ee98     libucrt:lcidtoname_downlevel.obj
 0002:00005ea4       ??_C@_1M@COAJPDHI@?$AAc?$AAs?$AA?9?$AAc?$AAz@ 7e55eea4     libucrt:lcidtoname_downlevel.obj
 0002:00005eb0       ??_C@_1M@DHBHFONH@?$AAc?$AAy?$AA?9?$AAg?$AAb@ 7e55eeb0     libucrt:lcidtoname_downlevel.obj
 0002:00005ebc       ??_C@_1M@IMGKELGA@?$AAd?$AAa?$AA?9?$AAd?$AAk@ 7e55eebc     libucrt:lcidtoname_downlevel.obj
 0002:00005ec8       ??_C@_1M@NNDGDNGA@?$AAd?$AAe?$AA?9?$AAa?$AAt@ 7e55eec8     libucrt:lcidtoname_downlevel.obj
 0002:00005ed4       ??_C@_1M@IKDBHEEM@?$AAd?$AAe?$AA?9?$AAc?$AAh@ 7e55eed4     libucrt:lcidtoname_downlevel.obj
 0002:00005ee0       ??_C@_1M@GFFOJMCJ@?$AAd?$AAe?$AA?9?$AAd?$AAe@ 7e55eee0     libucrt:lcidtoname_downlevel.obj
 0002:00005eec       ??_C@_1M@MDNLKBPM@?$AAd?$AAe?$AA?9?$AAl?$AAi@ 7e55eeec     libucrt:lcidtoname_downlevel.obj
 0002:00005ef8       ??_C@_1M@NJBEEJNL@?$AAd?$AAe?$AA?9?$AAl?$AAu@ 7e55eef8     libucrt:lcidtoname_downlevel.obj
 0002:00005f04       ??_C@_1O@GNNELBAP@?$AAd?$AAi?$AAv?$AA?9?$AAm?$AAv@ 7e55ef04     libucrt:lcidtoname_downlevel.obj
 0002:00005f14       ??_C@_1M@EJLEOGAE@?$AAe?$AAl?$AA?9?$AAg?$AAr@ 7e55ef14     libucrt:lcidtoname_downlevel.obj
 0002:00005f20       ??_C@_1M@GMPONJN@?$AAe?$AAn?$AA?9?$AAa?$AAu@ 7e55ef20     libucrt:lcidtoname_downlevel.obj
 0002:00005f2c       ??_C@_1M@NIDIIPGF@?$AAe?$AAn?$AA?9?$AAb?$AAz@ 7e55ef2c     libucrt:lcidtoname_downlevel.obj
 0002:00005f38       ??_C@_1M@JEHMIMFO@?$AAe?$AAn?$AA?9?$AAc?$AAa@ 7e55ef38     libucrt:lcidtoname_downlevel.obj
 0002:00005f44       ??_C@_1M@IGMJCDLA@?$AAe?$AAn?$AA?9?$AAc?$AAb@ 7e55ef44     libucrt:lcidtoname_downlevel.obj
 0002:00005f50       ??_C@_1M@BNFIGBKG@?$AAe?$AAn?$AA?9?$AAg?$AAb@ 7e55ef50     libucrt:lcidtoname_downlevel.obj
 0002:00005f5c       ??_C@_1M@LKIFDIGP@?$AAe?$AAn?$AA?9?$AAi?$AAe@ 7e55ef5c     libucrt:lcidtoname_downlevel.obj
 0002:00005f68       ??_C@_1M@PJKFGCCO@?$AAe?$AAn?$AA?9?$AAj?$AAm@ 7e55ef68     libucrt:lcidtoname_downlevel.obj
 0002:00005f74       ??_C@_1M@KPPKEPBO@?$AAe?$AAn?$AA?9?$AAn?$AAz@ 7e55ef74     libucrt:lcidtoname_downlevel.obj
 0002:00005f80       ??_C@_1M@GMDGLDOB@?$AAe?$AAn?$AA?9?$AAp?$AAh@ 7e55ef80     libucrt:lcidtoname_downlevel.obj
 0002:00005f8c       ??_C@_1M@ONGIBJNA@?$AAe?$AAn?$AA?9?$AAt?$AAt@ 7e55ef8c     libucrt:lcidtoname_downlevel.obj
 0002:00005f98       ??_C@_1M@LLODPCMM@?$AAe?$AAn?$AA?9?$AAu?$AAs@ 7e55ef98     libucrt:lcidtoname_downlevel.obj
 0002:00005fa4       ??_C@_1M@LAKFNPAN@?$AAe?$AAn?$AA?9?$AAz?$AAa@ 7e55efa4     libucrt:lcidtoname_downlevel.obj
 0002:00005fb0       ??_C@_1M@MFNHNHEO@?$AAe?$AAn?$AA?9?$AAz?$AAw@ 7e55efb0     libucrt:lcidtoname_downlevel.obj
 0002:00005fbc       ??_C@_1M@EJEINPHM@?$AAe?$AAs?$AA?9?$AAa?$AAr@ 7e55efbc     libucrt:lcidtoname_downlevel.obj
 0002:00005fc8       ??_C@_1M@GNKPCCJA@?$AAe?$AAs?$AA?9?$AAb?$AAo@ 7e55efc8     libucrt:lcidtoname_downlevel.obj
 0002:00005fd4       ??_C@_1M@LEEGFONL@?$AAe?$AAs?$AA?9?$AAc?$AAl@ 7e55efd4     libucrt:lcidtoname_downlevel.obj
 0002:00005fe0       ??_C@_1M@KGPDPBDF@?$AAe?$AAs?$AA?9?$AAc?$AAo@ 7e55efe0     libucrt:lcidtoname_downlevel.obj
 0002:00005fec       ??_C@_1M@EIAHOHH@?$AAe?$AAs?$AA?9?$AAc?$AAr@ 7e55efec     libucrt:lcidtoname_downlevel.obj
 0002:00005ff8       ??_C@_1M@LLPGMBIN@?$AAe?$AAs?$AA?9?$AAd?$AAo@ 7e55eff8     libucrt:lcidtoname_downlevel.obj
 0002:00006004       ??_C@_1M@DKHMKNJA@?$AAe?$AAs?$AA?9?$AAe?$AAc@ 7e55f004     libucrt:lcidtoname_downlevel.obj
 0002:00006010       ??_C@_1M@GKGFPKAP@?$AAe?$AAs?$AA?9?$AAe?$AAs@ 7e55f010     libucrt:lcidtoname_downlevel.obj
 0002:0000601c       ??_C@_1M@LKHKGDLN@?$AAe?$AAs?$AA?9?$AAg?$AAt@ 7e55f01c     libucrt:lcidtoname_downlevel.obj
 0002:00006028       ??_C@_1M@HEIIGGJD@?$AAe?$AAs?$AA?9?$AAh?$AAn@ 7e55f028     libucrt:lcidtoname_downlevel.obj
 0002:00006034       ??_C@_1M@FBDHPPGD@?$AAe?$AAs?$AA?9?$AAm?$AAx@ 7e55f034     libucrt:lcidtoname_downlevel.obj
 0002:00006040       ??_C@_1M@DPAGLNDH@?$AAe?$AAs?$AA?9?$AAn?$AAi@ 7e55f040     libucrt:lcidtoname_downlevel.obj
 0002:0000604c       ??_C@_1M@MDGOPGDD@?$AAe?$AAs?$AA?9?$AAp?$AAa@ 7e55f04c     libucrt:lcidtoname_downlevel.obj
 0002:00006058       ??_C@_1M@EMAMGBGE@?$AAe?$AAs?$AA?9?$AAp?$AAe@ 7e55f058     libucrt:lcidtoname_downlevel.obj
 0002:00006064       ??_C@_1M@IBMCAOEC@?$AAe?$AAs?$AA?9?$AAp?$AAr@ 7e55f064     libucrt:lcidtoname_downlevel.obj
 0002:00006070       ??_C@_1M@FGMDIJED@?$AAe?$AAs?$AA?9?$AAp?$AAy@ 7e55f070     libucrt:lcidtoname_downlevel.obj
 0002:0000607c       ??_C@_1M@IIDEOLLL@?$AAe?$AAs?$AA?9?$AAs?$AAv@ 7e55f07c     libucrt:lcidtoname_downlevel.obj
 0002:00006088       ??_C@_1M@GAOBIPA@?$AAe?$AAs?$AA?9?$AAu?$AAy@ 7e55f088     libucrt:lcidtoname_downlevel.obj
 0002:00006094       ??_C@_1M@JKFFICHJ@?$AAe?$AAs?$AA?9?$AAv?$AAe@ 7e55f094     libucrt:lcidtoname_downlevel.obj
 0002:000060a0       ??_C@_1M@PNMLOJDF@?$AAe?$AAt?$AA?9?$AAe?$AAe@ 7e55f0a0     libucrt:lcidtoname_downlevel.obj
 0002:000060ac       ??_C@_1M@GHHLIKEI@?$AAe?$AAu?$AA?9?$AAe?$AAs@ 7e55f0ac     libucrt:lcidtoname_downlevel.obj
 0002:000060b8       ??_C@_1M@PBNONODE@?$AAf?$AAa?$AA?9?$AAi?$AAr@ 7e55f0b8     libucrt:lcidtoname_downlevel.obj
 0002:000060c4       ??_C@_1M@JEEHPMIL@?$AAf?$AAi?$AA?9?$AAf?$AAi@ 7e55f0c4     libucrt:lcidtoname_downlevel.obj
 0002:000060d0       ??_C@_1M@LMDCNDBA@?$AAf?$AAo?$AA?9?$AAf?$AAo@ 7e55f0d0     libucrt:lcidtoname_downlevel.obj
 0002:000060dc       ??_C@_1M@JKEOHLDK@?$AAf?$AAr?$AA?9?$AAb?$AAe@ 7e55f0dc     libucrt:lcidtoname_downlevel.obj
 0002:000060e8       ??_C@_1M@NOHADPMI@?$AAf?$AAr?$AA?9?$AAc?$AAa@ 7e55f0e8     libucrt:lcidtoname_downlevel.obj
 0002:000060f4       ??_C@_1M@KDHIHAEC@?$AAf?$AAr?$AA?9?$AAc?$AAh@ 7e55f0f4     libucrt:lcidtoname_downlevel.obj
 0002:00006100       ??_C@_1M@MMBBFGAK@?$AAf?$AAr?$AA?9?$AAf?$AAr@ 7e55f100     libucrt:lcidtoname_downlevel.obj
 0002:0000610c       ??_C@_1M@PAFNENNF@?$AAf?$AAr?$AA?9?$AAl?$AAu@ 7e55f10c     libucrt:lcidtoname_downlevel.obj
 0002:00006118       ??_C@_1M@EOHDJGDD@?$AAf?$AAr?$AA?9?$AAm?$AAc@ 7e55f118     libucrt:lcidtoname_downlevel.obj
 0002:00006124       ??_C@_1M@FAPLLOPF@?$AAg?$AAl?$AA?9?$AAe?$AAs@ 7e55f124     libucrt:lcidtoname_downlevel.obj
 0002:00006130       ??_C@_1M@FOPBFLOO@?$AAg?$AAu?$AA?9?$AAi?$AAn@ 7e55f130     libucrt:lcidtoname_downlevel.obj
 0002:0000613c       ??_C@_1M@KBMCINPM@?$AAh?$AAe?$AA?9?$AAi?$AAl@ 7e55f13c     libucrt:lcidtoname_downlevel.obj
 0002:00006148       ??_C@_1M@BBPHKFPJ@?$AAh?$AAi?$AA?9?$AAi?$AAn@ 7e55f148     libucrt:lcidtoname_downlevel.obj
 0002:00006154       ??_C@_1M@PMBNDPHD@?$AAh?$AAr?$AA?9?$AAb?$AAa@ 7e55f154     libucrt:lcidtoname_downlevel.obj
 0002:00006160       ??_C@_1M@BPCKOEGE@?$AAh?$AAr?$AA?9?$AAh?$AAr@ 7e55f160     libucrt:lcidtoname_downlevel.obj
 0002:0000616c       ??_C@_1M@GACBMHKE@?$AAh?$AAu?$AA?9?$AAh?$AAu@ 7e55f16c     libucrt:lcidtoname_downlevel.obj
 0002:00006178       ??_C@_1M@MILPAJJC@?$AAh?$AAy?$AA?9?$AAa?$AAm@ 7e55f178     libucrt:lcidtoname_downlevel.obj
 0002:00006184       ??_C@_1M@BABBICEC@?$AAi?$AAd?$AA?9?$AAi?$AAd@ 7e55f184     libucrt:lcidtoname_downlevel.obj
 0002:00006190       ??_C@_1M@BIKNHHPF@?$AAi?$AAs?$AA?9?$AAi?$AAs@ 7e55f190     libucrt:lcidtoname_downlevel.obj
 0002:0000619c       ??_C@_1M@NMPCJPHE@?$AAi?$AAt?$AA?9?$AAc?$AAh@ 7e55f19c     libucrt:lcidtoname_downlevel.obj
 0002:000061a8       ??_C@_1M@GHKGFEDF@?$AAi?$AAt?$AA?9?$AAi?$AAt@ 7e55f1a8     libucrt:lcidtoname_downlevel.obj
 0002:000061b4       ??_C@_1M@NIEJCJJA@?$AAj?$AAa?$AA?9?$AAj?$AAp@ 7e55f1b4     libucrt:lcidtoname_downlevel.obj
 0002:000061c0       ??_C@_1M@JILFNBIM@?$AAk?$AAa?$AA?9?$AAg?$AAe@ 7e55f1c0     libucrt:lcidtoname_downlevel.obj
 0002:000061cc       ??_C@_1M@PACPMGPH@?$AAk?$AAk?$AA?9?$AAk?$AAz@ 7e55f1cc     libucrt:lcidtoname_downlevel.obj
 0002:000061d8       ??_C@_1M@IELFGMHA@?$AAk?$AAn?$AA?9?$AAi?$AAn@ 7e55f1d8     libucrt:lcidtoname_downlevel.obj
 0002:000061e4       ??_C@_1O@IBBJHCH@?$AAk?$AAo?$AAk?$AA?9?$AAi?$AAn@ 7e55f1e4     libucrt:lcidtoname_downlevel.obj
 0002:000061f4       ??_C@_1M@DMHAEOGC@?$AAk?$AAo?$AA?9?$AAk?$AAr@ 7e55f1f4     libucrt:lcidtoname_downlevel.obj
 0002:00006200       ??_C@_1M@HBAHBIGA@?$AAk?$AAy?$AA?9?$AAk?$AAg@ 7e55f200     libucrt:lcidtoname_downlevel.obj
 0002:0000620c       ??_C@_1M@KPMILCJG@?$AAl?$AAt?$AA?9?$AAl?$AAt@ 7e55f20c     libucrt:lcidtoname_downlevel.obj
 0002:00006218       ??_C@_1M@BDEKKCA@?$AAl?$AAv?$AA?9?$AAl?$AAv@ 7e55f218     libucrt:lcidtoname_downlevel.obj
 0002:00006224       ??_C@_1M@ELCKCCJJ@?$AAm?$AAi?$AA?9?$AAn?$AAz@ 7e55f224     libucrt:lcidtoname_downlevel.obj
 0002:00006230       ??_C@_1M@CBOOLAPA@?$AAm?$AAk?$AA?9?$AAm?$AAk@ 7e55f230     libucrt:lcidtoname_downlevel.obj
 0002:0000623c       ??_C@_1M@GPHNBJKN@?$AAm?$AAl?$AA?9?$AAi?$AAn@ 7e55f23c     libucrt:lcidtoname_downlevel.obj
 0002:00006248       ??_C@_1M@PABJILIG@?$AAm?$AAn?$AA?9?$AAm?$AAn@ 7e55f248     libucrt:lcidtoname_downlevel.obj
 0002:00006254       ??_C@_1M@FGBKKIPG@?$AAm?$AAr?$AA?9?$AAi?$AAn@ 7e55f254     libucrt:lcidtoname_downlevel.obj
 0002:00006260       ??_C@_1M@NDBPDDAL@?$AAm?$AAs?$AA?9?$AAb?$AAn@ 7e55f260     libucrt:lcidtoname_downlevel.obj
 0002:0000626c       ??_C@_1M@OPIHOOPI@?$AAm?$AAs?$AA?9?$AAm?$AAy@ 7e55f26c     libucrt:lcidtoname_downlevel.obj
 0002:00006278       ??_C@_1M@PPDBCNFM@?$AAm?$AAt?$AA?9?$AAm?$AAt@ 7e55f278     libucrt:lcidtoname_downlevel.obj
 0002:00006284       ??_C@_1M@KDJDKMDD@?$AAn?$AAb?$AA?9?$AAn?$AAo@ 7e55f284     libucrt:lcidtoname_downlevel.obj
 0002:00006290       ??_C@_1M@KFCFLMJP@?$AAn?$AAl?$AA?9?$AAb?$AAe@ 7e55f290     libucrt:lcidtoname_downlevel.obj
 0002:0000629c       ??_C@_1M@KPOPDDGO@?$AAn?$AAl?$AA?9?$AAn?$AAl@ 7e55f29c     libucrt:lcidtoname_downlevel.obj
 0002:000062a8       ??_C@_1M@LJKPEMLN@?$AAn?$AAn?$AA?9?$AAn?$AAo@ 7e55f2a8     libucrt:lcidtoname_downlevel.obj
 0002:000062b4       ??_C@_1M@BDGHHBFL@?$AAn?$AAs?$AA?9?$AAz?$AAa@ 7e55f2b4     libucrt:lcidtoname_downlevel.obj
 0002:000062c0       ??_C@_1M@IDEHOAP@?$AAp?$AAa?$AA?9?$AAi?$AAn@ 7e55f2c0     libucrt:lcidtoname_downlevel.obj
 0002:000062cc       ??_C@_1M@HDBKGOGH@?$AAp?$AAl?$AA?9?$AAp?$AAl@ 7e55f2cc     libucrt:lcidtoname_downlevel.obj
 0002:000062d8       ??_C@_1M@LJLLCMEH@?$AAp?$AAt?$AA?9?$AAb?$AAr@ 7e55f2d8     libucrt:lcidtoname_downlevel.obj
 0002:000062e4       ??_C@_1M@NCMONAAL@?$AAp?$AAt?$AA?9?$AAp?$AAt@ 7e55f2e4     libucrt:lcidtoname_downlevel.obj
 0002:000062f0       ??_C@_1O@EAKMAJDN@?$AAq?$AAu?$AAz?$AA?9?$AAb?$AAo@ 7e55f2f0     libucrt:lcidtoname_downlevel.obj
 0002:00006300       ??_C@_1O@BHHPIGDN@?$AAq?$AAu?$AAz?$AA?9?$AAe?$AAc@ 7e55f300     libucrt:lcidtoname_downlevel.obj
 0002:00006310       ??_C@_1O@GBAPEKMJ@?$AAq?$AAu?$AAz?$AA?9?$AAp?$AAe@ 7e55f310     libucrt:lcidtoname_downlevel.obj
 0002:00006320       ??_C@_1M@CLGLEFBO@?$AAr?$AAo?$AA?9?$AAr?$AAo@ 7e55f320     libucrt:lcidtoname_downlevel.obj
 0002:0000632c       ??_C@_1M@CEEDODME@?$AAr?$AAu?$AA?9?$AAr?$AAu@ 7e55f32c     libucrt:lcidtoname_downlevel.obj
 0002:00006338       ??_C@_1M@HPKKKMPP@?$AAs?$AAa?$AA?9?$AAi?$AAn@ 7e55f338     libucrt:lcidtoname_downlevel.obj
 0002:00006344       ??_C@_1M@BKMAIGOJ@?$AAs?$AAe?$AA?9?$AAf?$AAi@ 7e55f344     libucrt:lcidtoname_downlevel.obj
 0002:00006350       ??_C@_1M@NDPIFLFI@?$AAs?$AAe?$AA?9?$AAn?$AAo@ 7e55f350     libucrt:lcidtoname_downlevel.obj
 0002:0000635c       ??_C@_1M@DANKKHJ@?$AAs?$AAe?$AA?9?$AAs?$AAe@ 7e55f35c     libucrt:lcidtoname_downlevel.obj
 0002:00006368       ??_C@_1M@PNBLONPJ@?$AAs?$AAk?$AA?9?$AAs?$AAk@ 7e55f368     libucrt:lcidtoname_downlevel.obj
 0002:00006374       ??_C@_1M@LFMODOAL@?$AAs?$AAl?$AA?9?$AAs?$AAi@ 7e55f374     libucrt:lcidtoname_downlevel.obj
 0002:00006380       ??_C@_1O@DFKOMPG@?$AAs?$AAm?$AAa?$AA?9?$AAn?$AAo@ 7e55f380     libucrt:lcidtoname_downlevel.obj
 0002:00006390       ??_C@_1O@NDKPBNNH@?$AAs?$AAm?$AAa?$AA?9?$AAs?$AAe@ 7e55f390     libucrt:lcidtoname_downlevel.obj
 0002:000063a0       ??_C@_1O@PLLKBHAB@?$AAs?$AAm?$AAj?$AA?9?$AAn?$AAo@ 7e55f3a0     libucrt:lcidtoname_downlevel.obj
 0002:000063b0       ??_C@_1O@CLEPOGCA@?$AAs?$AAm?$AAj?$AA?9?$AAs?$AAe@ 7e55f3b0     libucrt:lcidtoname_downlevel.obj
 0002:000063c0       ??_C@_1O@DLGJGKMK@?$AAs?$AAm?$AAn?$AA?9?$AAf?$AAi@ 7e55f3c0     libucrt:lcidtoname_downlevel.obj
 0002:000063d0       ??_C@_1O@OJDJGAJC@?$AAs?$AAm?$AAs?$AA?9?$AAf?$AAi@ 7e55f3d0     libucrt:lcidtoname_downlevel.obj
 0002:000063e0       ??_C@_1M@BOFOGHPB@?$AAs?$AAq?$AA?9?$AAa?$AAl@ 7e55f3e0     libucrt:lcidtoname_downlevel.obj
 0002:000063ec       ??_C@_1BG@LJBBIPGB@?$AAs?$AAr?$AA?9?$AAb?$AAa?$AA?9?$AAc?$AAy?$AAr?$AAl@ 7e55f3ec     libucrt:lcidtoname_downlevel.obj
 0002:00006404       ??_C@_1BG@JLBENFOE@?$AAs?$AAr?$AA?9?$AAb?$AAa?$AA?9?$AAl?$AAa?$AAt?$AAn@ 7e55f404     libucrt:lcidtoname_downlevel.obj
 0002:0000641c       ??_C@_1BG@KODPNHE@?$AAs?$AAr?$AA?9?$AAs?$AAp?$AA?9?$AAc?$AAy?$AAr?$AAl@ 7e55f41c     libucrt:lcidtoname_downlevel.obj
 0002:00006434       ??_C@_1BG@CIOGKHPB@?$AAs?$AAr?$AA?9?$AAs?$AAp?$AA?9?$AAl?$AAa?$AAt?$AAn@ 7e55f434     libucrt:lcidtoname_downlevel.obj
 0002:0000644c       ??_C@_1M@NGFJLMAC@?$AAs?$AAv?$AA?9?$AAf?$AAi@ 7e55f44c     libucrt:lcidtoname_downlevel.obj
 0002:00006458       ??_C@_1M@MPJEJAJC@?$AAs?$AAv?$AA?9?$AAs?$AAe@ 7e55f458     libucrt:lcidtoname_downlevel.obj
 0002:00006464       ??_C@_1M@MPNDHLFK@?$AAs?$AAw?$AA?9?$AAk?$AAe@ 7e55f464     libucrt:lcidtoname_downlevel.obj
 0002:00006470       ??_C@_1O@KOHBJJI@?$AAs?$AAy?$AAr?$AA?9?$AAs?$AAy@ 7e55f470     libucrt:lcidtoname_downlevel.obj
 0002:00006480       ??_C@_1M@LDCEFHA@?$AAt?$AAa?$AA?9?$AAi?$AAn@ 7e55f480     libucrt:lcidtoname_downlevel.obj
 0002:0000648c       ??_C@_1M@CNJOFAK@?$AAt?$AAe?$AA?9?$AAi?$AAn@ 7e55f48c     libucrt:lcidtoname_downlevel.obj
 0002:00006498       ??_C@_1M@GNAECACD@?$AAt?$AAh?$AA?9?$AAt?$AAh@ 7e55f498     libucrt:lcidtoname_downlevel.obj
 0002:000064a4       ??_C@_1M@CHBIHOJO@?$AAt?$AAn?$AA?9?$AAz?$AAa@ 7e55f4a4     libucrt:lcidtoname_downlevel.obj
 0002:000064b0       ??_C@_1M@GCCMIGPJ@?$AAt?$AAr?$AA?9?$AAt?$AAr@ 7e55f4b0     libucrt:lcidtoname_downlevel.obj
 0002:000064bc       ??_C@_1M@CELMCNBK@?$AAt?$AAt?$AA?9?$AAr?$AAu@ 7e55f4bc     libucrt:lcidtoname_downlevel.obj
 0002:000064c8       ??_C@_1M@KLMCELGA@?$AAu?$AAk?$AA?9?$AAu?$AAa@ 7e55f4c8     libucrt:lcidtoname_downlevel.obj
 0002:000064d4       ??_C@_1M@EPAJJAJF@?$AAu?$AAr?$AA?9?$AAp?$AAk@ 7e55f4d4     libucrt:lcidtoname_downlevel.obj
 0002:000064e0       ??_C@_1BG@GEGPMCDJ@?$AAu?$AAz?$AA?9?$AAu?$AAz?$AA?9?$AAc?$AAy?$AAr?$AAl@ 7e55f4e0     libucrt:lcidtoname_downlevel.obj
 0002:000064f8       ??_C@_1BG@EGGKJILM@?$AAu?$AAz?$AA?9?$AAu?$AAz?$AA?9?$AAl?$AAa?$AAt?$AAn@ 7e55f4f8     libucrt:lcidtoname_downlevel.obj
 0002:00006510       ??_C@_1M@GFOCLFF@?$AAv?$AAi?$AA?9?$AAv?$AAn@ 7e55f510     libucrt:lcidtoname_downlevel.obj
 0002:0000651c       ??_C@_1M@CPAMEDFI@?$AAx?$AAh?$AA?9?$AAz?$AAa@ 7e55f51c     libucrt:lcidtoname_downlevel.obj
 0002:00006528       ??_C@_1O@EBKIFIGN@?$AAz?$AAh?$AA?9?$AAc?$AAh?$AAs@ 7e55f528     libucrt:lcidtoname_downlevel.obj
 0002:00006538       ??_C@_1O@NMHPGANE@?$AAz?$AAh?$AA?9?$AAc?$AAh?$AAt@ 7e55f538     libucrt:lcidtoname_downlevel.obj
 0002:00006548       ??_C@_1M@LPINJOMC@?$AAz?$AAh?$AA?9?$AAc?$AAn@ 7e55f548     libucrt:lcidtoname_downlevel.obj
 0002:00006554       ??_C@_1M@OCJEJODD@?$AAz?$AAh?$AA?9?$AAh?$AAk@ 7e55f554     libucrt:lcidtoname_downlevel.obj
 0002:00006560       ??_C@_1M@DNDLJINH@?$AAz?$AAh?$AA?9?$AAm?$AAo@ 7e55f560     libucrt:lcidtoname_downlevel.obj
 0002:0000656c       ??_C@_1M@MBFDNDND@?$AAz?$AAh?$AA?9?$AAs?$AAg@ 7e55f56c     libucrt:lcidtoname_downlevel.obj
 0002:00006578       ??_C@_1M@IMEPLEPE@?$AAz?$AAh?$AA?9?$AAt?$AAw@ 7e55f578     libucrt:lcidtoname_downlevel.obj
 0002:00006584       ??_C@_1M@BBGHNHJP@?$AAz?$AAu?$AA?9?$AAz?$AAa@ 7e55f584     libucrt:lcidtoname_downlevel.obj
 0002:000066f0       __infinity                 7e55f6f0     libucrt:87tran.obj
 0002:000066fa       __minfinity                7e55f6fa     libucrt:87tran.obj
 0002:00006704       __logemax                  7e55f704     libucrt:87tran.obj
 0002:0000672a       __OP_EXPjmptab             7e55f72a     libucrt:87tran.obj
 0002:00006750       __indefinite               7e55f750     libucrt:87disp.obj
 0002:0000675a       __piby2                    7e55f75a     libucrt:87disp.obj
 0002:00006764       __piby4                    7e55f764     libucrt:87disp.obj
 0002:00006798       __DEFAULT_CW_in_mem        7e55f798     libucrt:common.obj
 0002:0000679a       __pi_by_2_to_61            7e55f79a     libucrt:common.obj
 0002:000067d4       ??_C@_1BA@BALFACEM@?$AAC?$AAO?$AAN?$AAO?$AAU?$AAT?$AA$@ 7e55f7d4     libucrt:initcon.obj
 0002:000067f0       ___acrt_log10_table_t      7e55f7f0     libucrt:log10_tables.obj
 0002:00006c00       ___acrt_log10_table_cb     7e55fc00     libucrt:log10_tables.obj
 0002:00007010       __real@3fe0000000000000    7e560010     libucrt:powhlp.obj
 0002:00007030       __xmm@00000000000000000000000000000000 7e560030     libvcruntime:wcschr.obj
 0002:00007040       __Asan_string_should_annotate 7e560040     libcpmt:asan_noop.obj
 0002:00007040       __Asan_string_should_annotate_default 7e560040     libcpmt:asan_noop.obj
 0002:00007041       __Asan_vector_should_annotate_default 7e560041     libcpmt:asan_noop.obj
 0002:00007048       __load_config_used         7e560048     LIBCMT:loadcfg.obj
 0002:00007180       ??_R4ios_base@std@@6B@     7e560180     w3l.obj
 0002:00007194       ??_R3ios_base@std@@8       7e560194     w3l.obj
 0002:000071a4       ??_R2ios_base@std@@8       7e5601a4     w3l.obj
 0002:000071b0       ??_R1A@?0A@EA@ios_base@std@@8 7e5601b0     w3l.obj
 0002:000071cc       ??_R17?0A@EA@?$_Iosb@H@std@@8 7e5601cc     w3l.obj
 0002:000071e8       ??_R3?$_Iosb@H@std@@8      7e5601e8     w3l.obj
 0002:000071f8       ??_R2?$_Iosb@H@std@@8      7e5601f8     w3l.obj
 0002:00007200       ??_R1A@?0A@EA@?$_Iosb@H@std@@8 7e560200     w3l.obj
 0002:0000721c       ??_R4?$basic_ios@_WU?$char_traits@_W@std@@@std@@6B@ 7e56021c     w3l.obj
 0002:00007230       ??_R3?$basic_ios@_WU?$char_traits@_W@std@@@std@@8 7e560230     w3l.obj
 0002:00007240       ??_R2?$basic_ios@_WU?$char_traits@_W@std@@@std@@8 7e560240     w3l.obj
 0002:00007250       ??_R1A@?0A@EA@?$basic_ios@_WU?$char_traits@_W@std@@@std@@8 7e560250     w3l.obj
 0002:0000726c       ??_R4?$basic_streambuf@_WU?$char_traits@_W@std@@@std@@6B@ 7e56026c     w3l.obj
 0002:00007280       ??_R3?$basic_streambuf@_WU?$char_traits@_W@std@@@std@@8 7e560280     w3l.obj
 0002:00007290       ??_R2?$basic_streambuf@_WU?$char_traits@_W@std@@@std@@8 7e560290     w3l.obj
 0002:00007298       ??_R1A@?0A@EA@?$basic_streambuf@_WU?$char_traits@_W@std@@@std@@8 7e560298     w3l.obj
 0002:000072b4       ??_R4?$basic_istream@_WU?$char_traits@_W@std@@@std@@6B@ 7e5602b4     w3l.obj
 0002:000072c8       ??_R3?$basic_istream@_WU?$char_traits@_W@std@@@std@@8 7e5602c8     w3l.obj
 0002:000072d8       ??_R2?$basic_istream@_WU?$char_traits@_W@std@@@std@@8 7e5602d8     w3l.obj
 0002:000072ec       ??_R1A@?0A@EA@?$basic_istream@_WU?$char_traits@_W@std@@@std@@8 7e5602ec     w3l.obj
 0002:00007308       ??_R1A@A@3FA@?$basic_ios@_WU?$char_traits@_W@std@@@std@@8 7e560308     w3l.obj
 0002:00007324       ??_R1A@A@3EA@ios_base@std@@8 7e560324     w3l.obj
 0002:00007340       ??_R17A@3EA@?$_Iosb@H@std@@8 7e560340     w3l.obj
 0002:0000735c       ??_R4?$basic_ostream@_WU?$char_traits@_W@std@@@std@@6B@ 7e56035c     w3l.obj
 0002:00007370       ??_R3?$basic_ostream@_WU?$char_traits@_W@std@@@std@@8 7e560370     w3l.obj
 0002:00007380       ??_R2?$basic_ostream@_WU?$char_traits@_W@std@@@std@@8 7e560380     w3l.obj
 0002:00007394       ??_R1A@?0A@EA@?$basic_ostream@_WU?$char_traits@_W@std@@@std@@8 7e560394     w3l.obj
 0002:000073b0       ??_R4?$basic_iostream@_WU?$char_traits@_W@std@@@std@@6B@ 7e5603b0     w3l.obj
 0002:000073c4       ??_R3?$basic_iostream@_WU?$char_traits@_W@std@@@std@@8 7e5603c4     w3l.obj
 0002:000073d4       ??_R2?$basic_iostream@_WU?$char_traits@_W@std@@@std@@8 7e5603d4     w3l.obj
 0002:000073fc       ??_R1A@?0A@EA@?$basic_iostream@_WU?$char_traits@_W@std@@@std@@8 7e5603fc     w3l.obj
 0002:00007418       ??_R1BA@?0A@EA@?$basic_ostream@_WU?$char_traits@_W@std@@@std@@8 7e560418     w3l.obj
 0002:00007434       ??_R4?$basic_stringbuf@_WU?$char_traits@_W@std@@V?$allocator@_W@2@@std@@6B@ 7e560434     w3l.obj
 0002:00007448       ??_R3?$basic_stringbuf@_WU?$char_traits@_W@std@@V?$allocator@_W@2@@std@@8 7e560448     w3l.obj
 0002:00007458       ??_R2?$basic_stringbuf@_WU?$char_traits@_W@std@@V?$allocator@_W@2@@std@@8 7e560458     w3l.obj
 0002:00007464       ??_R1A@?0A@EA@?$basic_stringbuf@_WU?$char_traits@_W@std@@V?$allocator@_W@2@@std@@8 7e560464     w3l.obj
 0002:00007480       ??_R4?$basic_stringstream@_WU?$char_traits@_W@std@@V?$allocator@_W@2@@std@@6B@ 7e560480     w3l.obj
 0002:00007494       ??_R3?$basic_stringstream@_WU?$char_traits@_W@std@@V?$allocator@_W@2@@std@@8 7e560494     w3l.obj
 0002:000074a4       ??_R2?$basic_stringstream@_WU?$char_traits@_W@std@@V?$allocator@_W@2@@std@@8 7e5604a4     w3l.obj
 0002:000074d0       ??_R1A@?0A@EA@?$basic_stringstream@_WU?$char_traits@_W@std@@V?$allocator@_W@2@@std@@8 7e5604d0     w3l.obj
 0002:000074ec       ??_R4exception@std@@6B@    7e5604ec     w3l.obj
 0002:00007500       ??_R3exception@std@@8      7e560500     w3l.obj
 0002:00007510       ??_R2exception@std@@8      7e560510     w3l.obj
 0002:00007518       ??_R1A@?0A@EA@exception@std@@8 7e560518     w3l.obj
 0002:00007534       ??_R4bad_alloc@std@@6B@    7e560534     w3l.obj
 0002:00007548       ??_R3bad_alloc@std@@8      7e560548     w3l.obj
 0002:00007558       ??_R2bad_alloc@std@@8      7e560558     w3l.obj
 0002:00007564       ??_R1A@?0A@EA@bad_alloc@std@@8 7e560564     w3l.obj
 0002:00007580       ??_R4bad_array_new_length@std@@6B@ 7e560580     w3l.obj
 0002:00007594       ??_R3bad_array_new_length@std@@8 7e560594     w3l.obj
 0002:000075a4       ??_R2bad_array_new_length@std@@8 7e5605a4     w3l.obj
 0002:000075b4       ??_R1A@?0A@EA@bad_array_new_length@std@@8 7e5605b4     w3l.obj
 0002:000075d0       ??_R4runtime_error@std@@6B@ 7e5605d0     w3l.obj
 0002:000075e4       ??_R3runtime_error@std@@8  7e5605e4     w3l.obj
 0002:000075f4       ??_R2runtime_error@std@@8  7e5605f4     w3l.obj
 0002:00007600       ??_R1A@?0A@EA@runtime_error@std@@8 7e560600     w3l.obj
 0002:0000761c       ??_R3error_category@std@@8 7e56061c     w3l.obj
 0002:0000762c       ??_R2error_category@std@@8 7e56062c     w3l.obj
 0002:00007634       ??_R1A@?0A@EA@error_category@std@@8 7e560634     w3l.obj
 0002:00007650       ??_R4_System_error@std@@6B@ 7e560650     w3l.obj
 0002:00007664       ??_R3_System_error@std@@8  7e560664     w3l.obj
 0002:00007674       ??_R2_System_error@std@@8  7e560674     w3l.obj
 0002:00007684       ??_R1A@?0A@EA@_System_error@std@@8 7e560684     w3l.obj
 0002:000076a0       ??_R4system_error@std@@6B@ 7e5606a0     w3l.obj
 0002:000076b4       ??_R3system_error@std@@8   7e5606b4     w3l.obj
 0002:000076c4       ??_R2system_error@std@@8   7e5606c4     w3l.obj
 0002:000076d8       ??_R1A@?0A@EA@system_error@std@@8 7e5606d8     w3l.obj
 0002:000076f4       ??_R4_Iostream_error_category2@std@@6B@ 7e5606f4     w3l.obj
 0002:00007708       ??_R3_Iostream_error_category2@std@@8 7e560708     w3l.obj
 0002:00007718       ??_R2_Iostream_error_category2@std@@8 7e560718     w3l.obj
 0002:00007724       ??_R1A@?0A@EA@_Iostream_error_category2@std@@8 7e560724     w3l.obj
 0002:00007740       ??_R4bad_cast@std@@6B@     7e560740     w3l.obj
 0002:00007754       ??_R3bad_cast@std@@8       7e560754     w3l.obj
 0002:00007764       ??_R2bad_cast@std@@8       7e560764     w3l.obj
 0002:00007770       ??_R1A@?0A@EA@bad_cast@std@@8 7e560770     w3l.obj
 0002:0000778c       ??_R4_Facet_base@std@@6B@  7e56078c     w3l.obj
 0002:000077a0       ??_R3_Facet_base@std@@8    7e5607a0     w3l.obj
 0002:000077b0       ??_R2_Facet_base@std@@8    7e5607b0     w3l.obj
 0002:000077b8       ??_R1A@?0A@EA@_Facet_base@std@@8 7e5607b8     w3l.obj
 0002:000077d4       ??_R3facet@locale@std@@8   7e5607d4     w3l.obj
 0002:000077e4       ??_R2facet@locale@std@@8   7e5607e4     w3l.obj
 0002:000077f4       ??_R1A@?0A@EA@facet@locale@std@@8 7e5607f4     w3l.obj
 0002:00007810       ??_R13?0A@EA@_Crt_new_delete@std@@8 7e560810     w3l.obj
 0002:0000782c       ??_R3_Crt_new_delete@std@@8 7e56082c     w3l.obj
 0002:0000783c       ??_R2_Crt_new_delete@std@@8 7e56083c     w3l.obj
 0002:00007844       ??_R1A@?0A@EA@_Crt_new_delete@std@@8 7e560844     w3l.obj
 0002:00007860       ??_R3ctype_base@std@@8     7e560860     w3l.obj
 0002:00007870       ??_R2ctype_base@std@@8     7e560870     w3l.obj
 0002:00007884       ??_R1A@?0A@EA@ctype_base@std@@8 7e560884     w3l.obj
 0002:000078a0       ??_R4?$ctype@_W@std@@6B@   7e5608a0     w3l.obj
 0002:000078b4       ??_R3?$ctype@_W@std@@8     7e5608b4     w3l.obj
 0002:000078c4       ??_R2?$ctype@_W@std@@8     7e5608c4     w3l.obj
 0002:000078dc       ??_R1A@?0A@EA@?$ctype@_W@std@@8 7e5608dc     w3l.obj
 0002:000078f8       ??_R4failure@ios_base@std@@6B@ 7e5608f8     w3l.obj
 0002:0000790c       ??_R3failure@ios_base@std@@8 7e56090c     w3l.obj
 0002:0000791c       ??_R2failure@ios_base@std@@8 7e56091c     w3l.obj
 0002:00007934       ??_R1A@?0A@EA@failure@ios_base@std@@8 7e560934     w3l.obj
 0002:00007950       ??_R4logic_error@std@@6B@  7e560950     libcpmt:xthrow.obj
 0002:00007964       ??_R3logic_error@std@@8    7e560964     libcpmt:xthrow.obj
 0002:00007974       ??_R2logic_error@std@@8    7e560974     libcpmt:xthrow.obj
 0002:00007980       ??_R1A@?0A@EA@logic_error@std@@8 7e560980     libcpmt:xthrow.obj
 0002:0000799c       ??_R4length_error@std@@6B@ 7e56099c     libcpmt:xthrow.obj
 0002:000079b0       ??_R3length_error@std@@8   7e5609b0     libcpmt:xthrow.obj
 0002:000079c0       ??_R2length_error@std@@8   7e5609c0     libcpmt:xthrow.obj
 0002:000079d0       ??_R1A@?0A@EA@length_error@std@@8 7e5609d0     libcpmt:xthrow.obj
 0002:000079ec       ??_R4_Locimp@locale@std@@6B@ 7e5609ec     libcpmt:locale0.obj
 0002:00007a00       ??_R3_Locimp@locale@std@@8 7e560a00     libcpmt:locale0.obj
 0002:00007a10       ??_R2_Locimp@locale@std@@8 7e560a10     libcpmt:locale0.obj
 0002:00007a24       ??_R1A@?0A@EA@_Locimp@locale@std@@8 7e560a24     libcpmt:locale0.obj
 0002:00007a40       ??_R4type_info@@6B@        7e560a40     LIBCMT:std_type_info_static.obj
 0002:00007a54       ??_R3type_info@@8          7e560a54     LIBCMT:std_type_info_static.obj
 0002:00007a64       ??_R2type_info@@8          7e560a64     LIBCMT:std_type_info_static.obj
 0002:00007a6c       ??_R1A@?0A@EA@type_info@@8 7e560a6c     LIBCMT:std_type_info_static.obj
 0002:00007a88       ??_R4bad_exception@std@@6B@ 7e560a88     libvcruntime:frame.obj
 0002:00007a9c       ??_R3bad_exception@std@@8  7e560a9c     libvcruntime:frame.obj
 0002:00007aac       ??_R2bad_exception@std@@8  7e560aac     libvcruntime:frame.obj
 0002:00007ab8       ??_R1A@?0A@EA@bad_exception@std@@8 7e560ab8     libvcruntime:frame.obj
 0002:00007ad4       ___volatile_metadata       7e560ad4     <linker-defined>
 0002:00007f10       ___rtc_iaa                 7e560f10     LIBCMT:initsect.obj
 0002:00007f14       ___rtc_izz                 7e560f14     LIBCMT:initsect.obj
 0002:00007f18       ___rtc_taa                 7e560f18     LIBCMT:initsect.obj
 0002:00007f1c       ___rtc_tzz                 7e560f1c     LIBCMT:initsect.obj
 0002:00008384       __TI3?AVbad_array_new_length@std@@ 7e561384     w3l.obj
 0002:00008394       __CTA3?AVbad_array_new_length@std@@ 7e561394     w3l.obj
 0002:000083a4       __CT??_R0?AVbad_array_new_length@std@@@8??0bad_array_new_length@std@@QAE@ABV01@@Z12 7e5613a4     w3l.obj
 0002:000083c0       __CT??_R0?AVbad_alloc@std@@@8??0bad_alloc@std@@QAE@ABV01@@Z12 7e5613c0     w3l.obj
 0002:000083dc       __CT??_R0?AVexception@std@@@8??0exception@std@@QAE@ABV01@@Z12 7e5613dc     w3l.obj
 0002:000083f8       __CT??_R0?AVruntime_error@std@@@8??0runtime_error@std@@QAE@ABV01@@Z12 7e5613f8     w3l.obj
 0002:00008414       __CT??_R0?AVsystem_error@std@@@8??0system_error@std@@QAE@ABV01@@Z20 7e561414     w3l.obj
 0002:00008430       __CT??_R0?AV_System_error@std@@@8??0_System_error@std@@QAE@ABV01@@Z20 7e561430     w3l.obj
 0002:0000844c       __TI2?AVbad_cast@std@@     7e56144c     w3l.obj
 0002:0000845c       __CTA2?AVbad_cast@std@@    7e56145c     w3l.obj
 0002:00008468       __CT??_R0?AVbad_cast@std@@@8??0bad_cast@std@@QAE@ABV01@@Z12 7e561468     w3l.obj
 0002:00008484       __TI5?AVfailure@ios_base@std@@ 7e561484     w3l.obj
 0002:00008494       __CTA5?AVfailure@ios_base@std@@ 7e561494     w3l.obj
 0002:000084ac       __CT??_R0?AVfailure@ios_base@std@@@8??0failure@ios_base@std@@QAE@ABV012@@Z20 7e5614ac     w3l.obj
 0002:000084c8       __TI2?AVbad_alloc@std@@    7e5614c8     libcpmt:xthrow.obj
 0002:000084d8       __CTA2?AVbad_alloc@std@@   7e5614d8     libcpmt:xthrow.obj
 0002:000084e4       __CT??_R0?AVlogic_error@std@@@8??0logic_error@std@@QAE@ABV01@@Z12 7e5614e4     libcpmt:xthrow.obj
 0002:00008500       __TI3?AVlength_error@std@@ 7e561500     libcpmt:xthrow.obj
 0002:00008510       __CTA3?AVlength_error@std@@ 7e561510     libcpmt:xthrow.obj
 0002:00008520       __CT??_R0?AVlength_error@std@@@8??0length_error@std@@QAE@ABV01@@Z12 7e561520     libcpmt:xthrow.obj
 0002:0000853c       __TI2?AVruntime_error@std@@ 7e56153c     libcpmt:xthrow.obj
 0002:0000854c       __CTA2?AVruntime_error@std@@ 7e56154c     libcpmt:xthrow.obj
 0002:00008714       __TI2?AVbad_exception@std@@ 7e561714     libvcruntime:frame.obj
 0002:00008724       __CTA2?AVbad_exception@std@@ 7e561724     libvcruntime:frame.obj
 0002:00008730       __CT??_R0?AVbad_exception@std@@@8??0bad_exception@std@@QAE@ABV01@@Z12 7e561730     libvcruntime:frame.obj
 0002:00008bb0       __IMPORT_DESCRIPTOR_KERNEL32 7e561bb0     kernel32:KERNEL32.dll
 0002:00008bc4       __IMPORT_DESCRIPTOR_USER32 7e561bc4     user32:USER32.dll
 0002:00008bd8       __NULL_IMPORT_DESCRIPTOR   7e561bd8     kernel32:KERNEL32.dll
 0003:00000000       ?DEPPatchNew@@3PAEA        7e563000     w3l.obj
 0003:00000004       ?DEPPatchOrig@@3PAEA       7e563004     w3l.obj
 0003:00000008       ?_Static@?1???$_Immortalize_memcpy_image@V_Iostream_error_category2@std@@@std@@YAABV_Iostream_error_category2@1@XZ@4U?$_Constexpr_immortalize_impl@V_Iostream_error_category2@std@@@1@A 7e563008     w3l.obj
 0003:00000014       ?_Sync@ios_base@std@@0_NA  7e563014     libcpmt:ios.obj
 0003:0000001c       ___scrt_native_dllmain_reason 7e56301c     LIBCMT:utility.obj
 0003:00000020       ___security_cookie_complement 7e563020     LIBCMT:gs_cookie.obj
 0003:00000024       ___security_cookie         7e563024     LIBCMT:gs_cookie.obj
 0003:00000028       __fltused                  7e563028     LIBCMT:fltused.obj
 0003:00000030       ___isa_enabled             7e563030     LIBCMT:cpu_disp.obj
 0003:00000050       __NLG_Destination          7e563050     libvcruntime:exsup.obj
 0003:00000060       __pctype                   7e563060     libucrt:ctype.obj
 0003:00000064       __pwctype                  7e563064     libucrt:ctype.obj
 0003:00000070       ___acrt_lconv_c            7e563070     libucrt:localeconv.obj
 0003:000000c0       ___acrt_lconv              7e5630c0     libucrt:localeconv.obj
 0003:000000c4       ___acrt_lconv_static_decimal 7e5630c4     libucrt:localeconv.obj
 0003:000000c8       ___acrt_lconv_static_W_decimal 7e5630c8     libucrt:localeconv.obj
 0003:000000cc       ___abort_behavior          7e5630cc     libucrt:abort.obj
 0003:000000d8       ___acrt_initial_locale_data 7e5630d8     libucrt:nlsdata.obj
 0003:00000190       ___acrt_initial_locale_pointers 7e563190     libucrt:nlsdata.obj
 0003:00000198       ___acrt_wide_c_locale_string 7e563198     libucrt:nlsdata.obj
 0003:0000019c       ___mb_cur_max              7e56319c     libucrt:nlsdata.obj
 0003:000001a0       ___globallocalestatus      7e5631a0     libucrt:glstatus.obj
 0003:000001a8       __iob                      7e5631a8     libucrt:_file.obj
 0003:000003e0       ___acrt_initial_multibyte_data 7e5633e0     libucrt:mbctype.obj
 0003:00000900       __lookuptrailbytes         7e563900     libucrt:read.obj
 0003:00000a10       ??_R0?AVbad_array_new_length@std@@@8 7e563a10     w3l.obj
 0003:00000a38       ??_R0?AVbad_alloc@std@@@8  7e563a38     w3l.obj
 0003:00000a54       ??_R0?AVexception@std@@@8  7e563a54     w3l.obj
 0003:00000a70       ??_R0?AVruntime_error@std@@@8 7e563a70     w3l.obj
 0003:00000a90       ??_R0?AVsystem_error@std@@@8 7e563a90     w3l.obj
 0003:00000ab0       ??_R0?AV_System_error@std@@@8 7e563ab0     w3l.obj
 0003:00000ad0       ??_R0?AVbad_cast@std@@@8   7e563ad0     w3l.obj
 0003:00000aec       ??_R0?AVfailure@ios_base@std@@@8 7e563aec     w3l.obj
 0003:00000b10       ??_R0?AVlogic_error@std@@@8 7e563b10     libcpmt:xthrow.obj
 0003:00000b30       ??_R0?AVlength_error@std@@@8 7e563b30     libcpmt:xthrow.obj
 0003:00000b50       ??_R0?AVbad_exception@std@@@8 7e563b50     libvcruntime:frame.obj
 0003:00000b70       ??_R0?AVios_base@std@@@8   7e563b70     w3l.obj
 0003:00000b8c       ??_R0?AV?$_Iosb@H@std@@@8  7e563b8c     w3l.obj
 0003:00000ba8       ??_R0?AV?$basic_ios@_WU?$char_traits@_W@std@@@std@@@8 7e563ba8     w3l.obj
 0003:00000be0       ??_R0?AV?$basic_streambuf@_WU?$char_traits@_W@std@@@std@@@8 7e563be0     w3l.obj
 0003:00000c20       ??_R0?AV?$basic_istream@_WU?$char_traits@_W@std@@@std@@@8 7e563c20     w3l.obj
 0003:00000c5c       ??_R0?AV?$basic_ostream@_WU?$char_traits@_W@std@@@std@@@8 7e563c5c     w3l.obj
 0003:00000c98       ??_R0?AV?$basic_iostream@_WU?$char_traits@_W@std@@@std@@@8 7e563c98     w3l.obj
 0003:00000cd8       ??_R0?AV?$basic_stringbuf@_WU?$char_traits@_W@std@@V?$allocator@_W@2@@std@@@8 7e563cd8     w3l.obj
 0003:00000d28       ??_R0?AV?$basic_stringstream@_WU?$char_traits@_W@std@@V?$allocator@_W@2@@std@@@8 7e563d28     w3l.obj
 0003:00000d7c       ??_R0?AVerror_category@std@@@8 7e563d7c     w3l.obj
 0003:00000da0       ??_R0?AV_Iostream_error_category2@std@@@8 7e563da0     w3l.obj
 0003:00000dcc       ??_R0?AV_Facet_base@std@@@8 7e563dcc     w3l.obj
 0003:00000dec       ??_R0?AVfacet@locale@std@@@8 7e563dec     w3l.obj
 0003:00000e0c       ??_R0?AU_Crt_new_delete@std@@@8 7e563e0c     w3l.obj
 0003:00000e30       ??_R0?AUctype_base@std@@@8 7e563e30     w3l.obj
 0003:00000e50       ??_R0?AV?$ctype@_W@std@@@8 7e563e50     w3l.obj
 0003:00000e70       ??_R0?AV_Locimp@locale@std@@@8 7e563e70     libcpmt:locale0.obj
 0003:00000e94       ??_R0?AVtype_info@@@8      7e563e94     LIBCMT:std_type_info_static.obj
 0003:00000eb0       ?_Psave@?$_Facetptr@V?$ctype@_W@std@@@std@@2PBVfacet@locale@2@B 7e563eb0     w3l.obj
 0003:00000f80       ?_Id_cnt@id@locale@std@@0HA 7e563f80     libcpmt:locale0.obj
 0003:00000f84       ?_Clocptr@_Locimp@locale@std@@0PAV123@A 7e563f84     libcpmt:locale0.obj
 0003:00000f88       ?id@?$ctype@G@std@@2V0locale@2@A 7e563f88     libcpmt:locale0.obj
 0003:00000f8c       ?id@?$codecvt@_WDU_Mbstatet@@@std@@2V0locale@2@A 7e563f8c     libcpmt:locale0.obj
 0003:00000f90       ?id@?$codecvt@GDU_Mbstatet@@@std@@2V0locale@2@A 7e563f90     libcpmt:locale0.obj
 0003:00000f94       ?id@?$ctype@_W@std@@2V0locale@2@A 7e563f94     libcpmt:locale0.obj
 0003:00000f98       ?id@?$ctype@D@std@@2V0locale@2@A 7e563f98     libcpmt:locale0.obj
 0003:00000fb4       ?_Index@ios_base@std@@0HA  7e563fb4     libcpmt:ios.obj
 0003:00000ff0       ?_OptionsStorage@?1??__local_stdio_printf_options@@9@4_KA 7e563ff0     libcpmt:locale.obj
 0003:00000ff8       ?id@?$num_get@DV?$istreambuf_iterator@DU?$char_traits@D@std@@@std@@@std@@2V0locale@2@A 7e563ff8     libcpmt:locale.obj
 0003:00000ffc       ?id@?$num_put@DV?$ostreambuf_iterator@DU?$char_traits@D@std@@@std@@@std@@2V0locale@2@A 7e563ffc     libcpmt:locale.obj
 0003:00001000       ?id@?$numpunct@D@std@@2V0locale@2@A 7e564000     libcpmt:locale.obj
 0003:00001004       ?id@?$codecvt@DDU_Mbstatet@@@std@@2V0locale@2@A 7e564004     libcpmt:locale.obj
 0003:00001008       ?_Ptr_cin@std@@3PAV?$basic_istream@DU?$char_traits@D@std@@@1@A 7e564008     libcpmt:iosptrs.obj
 0003:0000100c       ?_Ptr_cout@std@@3PAV?$basic_ostream@DU?$char_traits@D@std@@@1@A 7e56400c     libcpmt:iosptrs.obj
 0003:00001010       ?_Ptr_cerr@std@@3PAV?$basic_ostream@DU?$char_traits@D@std@@@1@A 7e564010     libcpmt:iosptrs.obj
 0003:00001014       ?_Ptr_clog@std@@3PAV?$basic_ostream@DU?$char_traits@D@std@@@1@A 7e564014     libcpmt:iosptrs.obj
 0003:00001018       ?_Ptr_wcin@std@@3PAV?$basic_istream@_WU?$char_traits@_W@std@@@1@A 7e564018     libcpmt:iosptrs.obj
 0003:0000101c       ?_Ptr_wcout@std@@3PAV?$basic_ostream@_WU?$char_traits@_W@std@@@1@A 7e56401c     libcpmt:iosptrs.obj
 0003:00001020       ?_Ptr_wcerr@std@@3PAV?$basic_ostream@_WU?$char_traits@_W@std@@@1@A 7e564020     libcpmt:iosptrs.obj
 0003:00001024       ?_Ptr_wclog@std@@3PAV?$basic_ostream@_WU?$char_traits@_W@std@@@1@A 7e564024     libcpmt:iosptrs.obj
 0003:00001054       ?id@?$time_put@_WV?$ostreambuf_iterator@_WU?$char_traits@_W@std@@@std@@@std@@2V0locale@2@A 7e564054     libcpmt:wlocale.obj
 0003:00001058       ?id@?$num_get@_WV?$istreambuf_iterator@_WU?$char_traits@_W@std@@@std@@@std@@2V0locale@2@A 7e564058     libcpmt:wlocale.obj
 0003:0000105c       ?id@?$num_put@_WV?$ostreambuf_iterator@_WU?$char_traits@_W@std@@@std@@@std@@2V0locale@2@A 7e56405c     libcpmt:wlocale.obj
 0003:00001060       ?id@?$numpunct@_W@std@@2V0locale@2@A 7e564060     libcpmt:wlocale.obj
 0003:00001064       ?id@?$collate@_W@std@@2V0locale@2@A 7e564064     libcpmt:wlocale.obj
 0003:00001068       ?id@?$messages@_W@std@@2V0locale@2@A 7e564068     libcpmt:wlocale.obj
 0003:0000106c       ?id@?$money_get@_WV?$istreambuf_iterator@_WU?$char_traits@_W@std@@@std@@@std@@2V0locale@2@A 7e56406c     libcpmt:wlocale.obj
 0003:00001070       ?id@?$money_put@_WV?$ostreambuf_iterator@_WU?$char_traits@_W@std@@@std@@@std@@2V0locale@2@A 7e564070     libcpmt:wlocale.obj
 0003:00001074       ?id@?$moneypunct@_W$0A@@std@@2V0locale@2@A 7e564074     libcpmt:wlocale.obj
 0003:00001078       ?id@?$moneypunct@_W$00@std@@2V0locale@2@A 7e564078     libcpmt:wlocale.obj
 0003:0000107c       ?id@?$time_get@_WV?$istreambuf_iterator@_WU?$char_traits@_W@std@@@std@@@std@@2V0locale@2@A 7e56407c     libcpmt:wlocale.obj
 0003:00001080       ?id@?$num_get@GV?$istreambuf_iterator@GU?$char_traits@G@std@@@std@@@std@@2V0locale@2@A 7e564080     libcpmt:wlocale.obj
 0003:00001084       ?id@?$num_put@GV?$ostreambuf_iterator@GU?$char_traits@G@std@@@std@@@std@@2V0locale@2@A 7e564084     libcpmt:wlocale.obj
 0003:00001088       ?id@?$numpunct@G@std@@2V0locale@2@A 7e564088     libcpmt:wlocale.obj
 0003:0000108c       ?id@?$collate@G@std@@2V0locale@2@A 7e56408c     libcpmt:wlocale.obj
 0003:00001090       ?id@?$messages@G@std@@2V0locale@2@A 7e564090     libcpmt:wlocale.obj
 0003:00001094       ?id@?$money_get@GV?$istreambuf_iterator@GU?$char_traits@G@std@@@std@@@std@@2V0locale@2@A 7e564094     libcpmt:wlocale.obj
 0003:00001098       ?id@?$money_put@GV?$ostreambuf_iterator@GU?$char_traits@G@std@@@std@@@std@@2V0locale@2@A 7e564098     libcpmt:wlocale.obj
 0003:0000109c       ?id@?$moneypunct@G$0A@@std@@2V0locale@2@A 7e56409c     libcpmt:wlocale.obj
 0003:000010a0       ?id@?$moneypunct@G$00@std@@2V0locale@2@A 7e5640a0     libcpmt:wlocale.obj
 0003:000010a4       ?id@?$time_get@GV?$istreambuf_iterator@GU?$char_traits@G@std@@@std@@@std@@2V0locale@2@A 7e5640a4     libcpmt:wlocale.obj
 0003:000010a8       ?id@?$time_put@GV?$ostreambuf_iterator@GU?$char_traits@G@std@@@std@@@std@@2V0locale@2@A 7e5640a8     libcpmt:wlocale.obj
 0003:000010ac       ?id@?$collate@D@std@@2V0locale@2@A 7e5640ac     libcpmt:xlocale.obj
 0003:000010b0       ?id@?$messages@D@std@@2V0locale@2@A 7e5640b0     libcpmt:xlocale.obj
 0003:000010b4       ?id@?$money_get@DV?$istreambuf_iterator@DU?$char_traits@D@std@@@std@@@std@@2V0locale@2@A 7e5640b4     libcpmt:xlocale.obj
 0003:000010b8       ?id@?$money_put@DV?$ostreambuf_iterator@DU?$char_traits@D@std@@@std@@@std@@2V0locale@2@A 7e5640b8     libcpmt:xlocale.obj
 0003:000010bc       ?id@?$moneypunct@D$0A@@std@@2V0locale@2@A 7e5640bc     libcpmt:xlocale.obj
 0003:000010c0       ?id@?$moneypunct@D$00@std@@2V0locale@2@A 7e5640c0     libcpmt:xlocale.obj
 0003:000010c4       ?id@?$time_get@DV?$istreambuf_iterator@DU?$char_traits@D@std@@@std@@@std@@2V0locale@2@A 7e5640c4     libcpmt:xlocale.obj
 0003:000010c8       ?id@?$time_put@DV?$ostreambuf_iterator@DU?$char_traits@D@std@@@std@@@std@@2V0locale@2@A 7e5640c8     libcpmt:xlocale.obj
 0003:000010d0       ___scrt_current_native_startup_state 7e5640d0     LIBCMT:utility.obj
 0003:000010d4       ___scrt_native_startup_lock 7e5640d4     LIBCMT:utility.obj
 0003:000010f4       ___isa_available           7e5640f4     LIBCMT:cpu_disp.obj
 0003:000010f8       ___favor                   7e5640f8     LIBCMT:cpu_disp.obj
 0003:00001100       ?__type_info_root_node@@3U__type_info_node@@A 7e564100     LIBCMT:tncleanup.obj
 0003:00001108       ?_OptionsStorage@?1??__local_stdio_scanf_options@@9@4_KA 7e564108     LIBCMT:default_local_stdio_options.obj
 0003:00001110       ___scrt_debugger_hook_flag 7e564110     LIBCMT:utility_desktop.obj
 0003:00001434       ?__WinRTOutOfMemoryExceptionCallback@@3P6GPAXXZA 7e564434     libvcruntime:ehhelpers.obj
 0003:00001438       ___pPurecall               7e564438     libvcruntime:purevirt_data.obj
 0003:00001480       ?pArgList@UnDecorator@@0PAVReplicator@@A 7e564480     libvcruntime:undname.obj
 0003:00001484       ?pZNameList@UnDecorator@@0PAVReplicator@@A 7e564484     libvcruntime:undname.obj
 0003:00001488       ?pTemplateArgList@UnDecorator@@0PAVReplicator@@A 7e564488     libvcruntime:undname.obj
 0003:0000148c       ?gName@UnDecorator@@0PBDB  7e56448c     libvcruntime:undname.obj
 0003:00001490       ?name@UnDecorator@@0PBDB   7e564490     libvcruntime:undname.obj
 0003:00001494       ?disableFlags@UnDecorator@@0KA 7e564494     libvcruntime:undname.obj
 0003:00001498       ?fExplicitTemplateParams@UnDecorator@@0_NA 7e564498     libvcruntime:undname.obj
 0003:00001499       ?fGetTemplateArgumentList@UnDecorator@@0_NA 7e564499     libvcruntime:undname.obj
 0003:0000149c       ?m_pGetParameter@UnDecorator@@0P6APADJ@ZA 7e56449c     libvcruntime:undname.obj
 0003:000014a0       ?m_CHPENameOffset@UnDecorator@@0KA 7e5644a0     libvcruntime:undname.obj
 0003:000014a4       ?m_recursionLevel@UnDecorator@@0KA 7e5644a4     libvcruntime:undname.obj
 0003:00001634       ___acrt_lconv_static_null  7e564634     libucrt:localeconv.obj
 0003:00001638       ___acrt_lconv_static_W_null 7e564638     libucrt:localeconv.obj
 0003:00001648       ?c_exit_complete@?1???R<lambda_6e4b09c48022b2350581041d5f6b0c4c>@@QBE@XZ@4_NA 7e564648     libucrt:exit.obj
 0003:00001758       __environ_table            7e564758     libucrt:environment_initialization.obj
 0003:0000175c       __wenviron_table           7e56475c     libucrt:environment_initialization.obj
 0003:00001760       ___dcrt_initial_wide_environment 7e564760     libucrt:environment_initialization.obj
 0003:00001764       ___dcrt_initial_narrow_environment 7e564764     libucrt:environment_initialization.obj
 0003:00001768       ___acrt_atexit_table       7e564768     libucrt:onexit.obj
 0003:00001774       ___acrt_at_quick_exit_table 7e564774     libucrt:onexit.obj
 0003:00001780       ___acrt_locale_changed_data 7e564780     libucrt:wsetlocale.obj
 0003:00001784       ___acrt_current_locale_data 7e564784     libucrt:nlsdata.obj
 0003:0000186c       __nstream                  7e56486c     libucrt:_file.obj
 0003:00001870       ___piob                    7e564870     libucrt:_file.obj
 0003:00001874       ___acrt_stdout_buffer      7e564874     libucrt:_sftbuf.obj
 0003:00001878       ___acrt_stderr_buffer      7e564878     libucrt:_sftbuf.obj
 0003:00001880       ___pioinfo                 7e564880     libucrt:ioinit.obj
 0003:00001a80       __nhandle                  7e564a80     libucrt:ioinit.obj
 0003:00001a94       ?_timezone@@3V?$dual_state_global@J@__crt_state_management@@A 7e564a94     libucrt:timeset.obj
 0003:00001a98       ?_daylight@@3V?$dual_state_global@H@__crt_state_management@@A 7e564a98     libucrt:timeset.obj
 0003:00001a9c       ?_dstbias@@3V?$dual_state_global@J@__crt_state_management@@A 7e564a9c     libucrt:timeset.obj
 0003:00001b5c       __mbctype                  7e564b5c     libucrt:mbctype.obj
 0003:00001b60       __mbcasemap                7e564b60     libucrt:mbctype.obj
 0003:00001b64       ___acrt_current_multibyte_data 7e564b64     libucrt:mbctype.obj
 0003:00001b70       __pgmptr                   7e564b70     libucrt:argv_data.obj
 0003:00001b74       ___argc                    7e564b74     libucrt:argv_data.obj
 0003:00001b78       ___argv                    7e564b78     libucrt:argv_data.obj
 0003:00001b7c       ___wargv                   7e564b7c     libucrt:argv_data.obj
 0003:00001b80       __acmdln                   7e564b80     libucrt:argv_data.obj
 0003:00001b84       __wcmdln                   7e564b84     libucrt:argv_data.obj
 0003:00001b88       ___acrt_heap               7e564b88     libucrt:heap_handle.obj
 0003:00001ba8       ___fastflag                7e564ba8     libucrt:fp_flags.obj
 0003:00001bb0       ___scrt_ucrt_dll_is_in_use 7e564bb0     <common>
 0003:00001bb4       ___dyn_tls_init_callback   7e564bb4     <common>
 0003:00001bb8       __pmatherr                 7e564bb8     <common>
 0003:00001bbc       ___use_sse2_mathfcns       7e564bbc     <common>

 entry point at        0001:00003bb6

 Static symbols

 0000:fffd8000       .debug$S                   7e540000     War3Injector.exp
 0000:fffd8000       .debug$S                   7e540000     kernel32:KERNEL32.dll
 0000:fffd8000       .debug$S                   7e540000     kernel32:KERNEL32.dll
 0000:fffd8000       .debug$S                   7e540000     kernel32:KERNEL32.dll
 0000:fffd8000       .debug$S                   7e540000     kernel32:KERNEL32.dll
 0000:fffd8000       .debug$S                   7e540000     kernel32:KERNEL32.dll
 0000:fffd8000       .debug$S                   7e540000     kernel32:KERNEL32.dll
 0000:fffd8000       .debug$S                   7e540000     kernel32:KERNEL32.dll
 0000:fffd8000       .debug$S                   7e540000     kernel32:KERNEL32.dll
 0000:fffd8000       .debug$S                   7e540000     kernel32:KERNEL32.dll
 0000:fffd8000       .debug$S                   7e540000     kernel32:KERNEL32.dll
 0000:fffd8000       .debug$S                   7e540000     kernel32:KERNEL32.dll
 0000:fffd8000       .debug$S                   7e540000     kernel32:KERNEL32.dll
 0000:fffd8000       .debug$S                   7e540000     kernel32:KERNEL32.dll
 0000:fffd8000       .debug$S                   7e540000     kernel32:KERNEL32.dll
 0000:fffd8000       .debug$S                   7e540000     kernel32:KERNEL32.dll
 0000:fffd8000       .debug$S                   7e540000     kernel32:KERNEL32.dll
 0000:fffd8000       .debug$S                   7e540000     kernel32:KERNEL32.dll
 0000:fffd8000       .debug$S                   7e540000     kernel32:KERNEL32.dll
 0000:fffd8000       .debug$S                   7e540000     kernel32:KERNEL32.dll
 0000:fffd8000       .debug$S                   7e540000     kernel32:KERNEL32.dll
 0000:fffd8000       .debug$S                   7e540000     kernel32:KERNEL32.dll
 0000:fffd8000       .debug$S                   7e540000     kernel32:KERNEL32.dll
 0000:fffd8000       .debug$S                   7e540000     kernel32:KERNEL32.dll
 0000:fffd8000       .debug$S                   7e540000     kernel32:KERNEL32.dll
 0000:fffd8000       .debug$S                   7e540000     kernel32:KERNEL32.dll
 0000:fffd8000       .debug$S                   7e540000     kernel32:KERNEL32.dll
 0000:fffd8000       .debug$S                   7e540000     kernel32:KERNEL32.dll
 0000:fffd8000       .debug$S                   7e540000     kernel32:KERNEL32.dll
 0000:fffd8000       .debug$S                   7e540000     kernel32:KERNEL32.dll
 0000:fffd8000       .debug$S                   7e540000     kernel32:KERNEL32.dll
 0000:fffd8000       .debug$S                   7e540000     kernel32:KERNEL32.dll
 0000:fffd8000       .debug$S                   7e540000     kernel32:KERNEL32.dll
 0000:fffd8000       .debug$S                   7e540000     kernel32:KERNEL32.dll
 0000:fffd8000       .debug$S                   7e540000     kernel32:KERNEL32.dll
 0000:fffd8000       .debug$S                   7e540000     kernel32:KERNEL32.dll
 0000:fffd8000       .debug$S                   7e540000     kernel32:KERNEL32.dll
 0000:fffd8000       .debug$S                   7e540000     kernel32:KERNEL32.dll
 0000:fffd8000       .debug$S                   7e540000     kernel32:KERNEL32.dll
 0000:fffd8000       .debug$S                   7e540000     kernel32:KERNEL32.dll
 0000:fffd8000       .debug$S                   7e540000     kernel32:KERNEL32.dll
 0000:fffd8000       .debug$S                   7e540000     kernel32:KERNEL32.dll
 0000:fffd8000       .debug$S                   7e540000     kernel32:KERNEL32.dll
 0000:fffd8000       .debug$S                   7e540000     kernel32:KERNEL32.dll
 0000:fffd8000       .debug$S                   7e540000     kernel32:KERNEL32.dll
 0000:fffd8000       .debug$S                   7e540000     kernel32:KERNEL32.dll
 0000:fffd8000       .debug$S                   7e540000     kernel32:KERNEL32.dll
 0000:fffd8000       .debug$S                   7e540000     kernel32:KERNEL32.dll
 0000:fffd8000       .debug$S                   7e540000     kernel32:KERNEL32.dll
 0000:fffd8000       .debug$S                   7e540000     kernel32:KERNEL32.dll
 0000:fffd8000       .debug$S                   7e540000     kernel32:KERNEL32.dll
 0000:fffd8000       .debug$S                   7e540000     kernel32:KERNEL32.dll
 0000:fffd8000       .debug$S                   7e540000     kernel32:KERNEL32.dll
 0000:fffd8000       .debug$S                   7e540000     kernel32:KERNEL32.dll
 0000:fffd8000       .debug$S                   7e540000     kernel32:KERNEL32.dll
 0000:fffd8000       .debug$S                   7e540000     kernel32:KERNEL32.dll
 0000:fffd8000       .debug$S                   7e540000     kernel32:KERNEL32.dll
 0000:fffd8000       .debug$S                   7e540000     kernel32:KERNEL32.dll
 0000:fffd8000       .debug$S                   7e540000     kernel32:KERNEL32.dll
 0000:fffd8000       .debug$S                   7e540000     kernel32:KERNEL32.dll
 0000:fffd8000       .debug$S                   7e540000     kernel32:KERNEL32.dll
 0000:fffd8000       .debug$S                   7e540000     kernel32:KERNEL32.dll
 0000:fffd8000       .debug$S                   7e540000     kernel32:KERNEL32.dll
 0000:fffd8000       .debug$S                   7e540000     kernel32:KERNEL32.dll
 0000:fffd8000       .debug$S                   7e540000     kernel32:KERNEL32.dll
 0000:fffd8000       .debug$S                   7e540000     kernel32:KERNEL32.dll
 0000:fffd8000       .debug$S                   7e540000     kernel32:KERNEL32.dll
 0000:fffd8000       .debug$S                   7e540000     kernel32:KERNEL32.dll
 0000:fffd8000       .debug$S                   7e540000     kernel32:KERNEL32.dll
 0000:fffd8000       .debug$S                   7e540000     kernel32:KERNEL32.dll
 0000:fffd8000       .debug$S                   7e540000     kernel32:KERNEL32.dll
 0000:fffd8000       .debug$S                   7e540000     kernel32:KERNEL32.dll
 0000:fffd8000       .debug$S                   7e540000     kernel32:KERNEL32.dll
 0000:fffd8000       .debug$S                   7e540000     kernel32:KERNEL32.dll
 0000:fffd8000       .debug$S                   7e540000     kernel32:KERNEL32.dll
 0000:fffd8000       .debug$S                   7e540000     kernel32:KERNEL32.dll
 0000:fffd8000       .debug$S                   7e540000     kernel32:KERNEL32.dll
 0000:fffd8000       .debug$S                   7e540000     kernel32:KERNEL32.dll
 0000:fffd8000       .debug$S                   7e540000     kernel32:KERNEL32.dll
 0000:fffd8000       .debug$S                   7e540000     kernel32:KERNEL32.dll
 0000:fffd8000       .debug$S                   7e540000     kernel32:KERNEL32.dll
 0000:fffd8000       .debug$S                   7e540000     kernel32:KERNEL32.dll
 0000:fffd8000       .debug$S                   7e540000     kernel32:KERNEL32.dll
 0000:fffd8000       .debug$S                   7e540000     kernel32:KERNEL32.dll
 0000:fffd8000       .debug$S                   7e540000     kernel32:KERNEL32.dll
 0000:fffd8000       .debug$S                   7e540000     kernel32:KERNEL32.dll
 0000:fffd8000       .debug$S                   7e540000     kernel32:KERNEL32.dll
 0000:fffd8000       .debug$S                   7e540000     kernel32:KERNEL32.dll
 0000:fffd8000       .debug$S                   7e540000     kernel32:KERNEL32.dll
 0000:fffd8000       .debug$S                   7e540000     kernel32:KERNEL32.dll
 0000:fffd8000       .debug$S                   7e540000     kernel32:KERNEL32.dll
 0000:fffd8000       .debug$S                   7e540000     kernel32:KERNEL32.dll
 0000:fffd8000       .debug$S                   7e540000     kernel32:KERNEL32.dll
 0000:fffd8000       .debug$S                   7e540000     kernel32:KERNEL32.dll
 0000:fffd8000       .debug$S                   7e540000     kernel32:KERNEL32.dll
 0000:fffd8000       .debug$S                   7e540000     user32:USER32.dll
 0000:fffd8000       .debug$S                   7e540000     user32:USER32.dll
 0001:00000000       ??__Einitlocks@std@@YAXXZ  7e541000 f   libcpmt:xlock.obj
 0001:00000016       ??__Eclassic_locale@std@@YAXXZ 7e541016 f   libcpmt:locale0.obj
 0001:00000022       ??__F_Fac_tidy_reg@std@@YAXXZ 7e541022 f   libcpmt:locale0.obj
 0001:0000002e       ??__Einitlocks@std@@YAXXZ  7e54102e f   libcpmt:iosptrs.obj
 0001:00000044       ??__Finit_atexit@@YAXXZ    7e541044 f   libcpmt:iosptrs.obj
 0001:0000021b       __catch$??$?6_WU?$char_traits@_W@std@@@std@@YAAAV?$basic_ostream@_WU?$char_traits@_W@std@@@0@AAV10@PBD@Z$0 7e54121b f i w3l.obj
 0001:0000040a       __catch$??$?6_WU?$char_traits@_W@std@@@std@@YAAAV?$basic_ostream@_WU?$char_traits@_W@std@@@0@AAV10@PB_W@Z$0 7e54140a f i w3l.obj
 0001:00001d8c       __catch$?_Osfx@?$basic_ostream@_WU?$char_traits@_W@std@@@std@@QAEXXZ$0 7e542d8c f i w3l.obj
 0001:000022c9       __catch$?flush@?$basic_ostream@_WU?$char_traits@_W@std@@@std@@QAEAAV12@XZ$0 7e5432c9 f i w3l.obj
 0001:00002986       _no_op_initialize          7e543986 f i libucrt:wsetlocale.obj
 0001:0000318c       _tidy_global               7e54418c f   libcpmt:locale0.obj
 0001:00003422       __Utf8_trailing_byte_count 7e544422 f   libcpmt:xmbtowc.obj
 0001:00003834       $$000000                   7e544834     LIBCMT:ehprolog.obj
 0001:00003876       ?dllmain_crt_dispatch@@YGHQAUHINSTANCE__@@KQAX@Z 7e544876 f   LIBCMT:dll_dllmain.obj
 0001:000038c9       ?dllmain_crt_process_attach@@YAHQAUHINSTANCE__@@QAX@Z 7e5448c9 f   LIBCMT:dll_dllmain.obj
 0001:000039d0       ?dllmain_crt_process_detach@@YAH_N@Z 7e5449d0 f   LIBCMT:dll_dllmain.obj
 0001:00003a80       ?dllmain_dispatch@@YAHQAUHINSTANCE__@@KQAX@Z 7e544a80 f   LIBCMT:dll_dllmain.obj
 0001:00003b8b       ?dllmain_raw@@YGHQAUHINSTANCE__@@KQAX@Z 7e544b8b f   LIBCMT:dll_dllmain.obj
 0001:00003bd9       ?find_pe_section@@YAPAU_IMAGE_SECTION_HEADER@@QAEI@Z 7e544bd9 f   LIBCMT:utility.obj
 0001:00003f80       $$000000                   7e544f80     LIBCMT:alloca16.obj
 0001:00003f96       alloca_8                   7e544f96     LIBCMT:alloca16.obj
 0001:000041a2       ___get_entropy             7e5451a2 f   LIBCMT:gs_support.obj
 0001:00004400       $$000000                   7e545400     LIBCMT:sehprolg4.obj
 0001:00004660       $$000000                   7e545660     LIBCMT:chkstk.obj
 0001:00004674       cs10                       7e545674     LIBCMT:chkstk.obj
 0001:00004682       cs20                       7e545682     LIBCMT:chkstk.obj
 0001:0000475c       ?_FilterSetCurrentException@@YAKPAU_EXCEPTION_POINTERS@@E@Z 7e54575c f   libvcruntime:ehhelpers.obj
 0001:00005e56       $LN1250                    7e546e56     libvcruntime:memcmp.obj
 0001:00005ee0       $$000000                   7e546ee0     libvcruntime:memcpy.obj
 0001:00005ee0       $$000000                   7e546ee0     libvcruntime:memmove.obj
 0001:00005f00       CopyUp                     7e546f00     libvcruntime:memcpy.obj
 0001:00005f00       CopyUp                     7e546f00     libvcruntime:memmove.obj
 0001:00005f24       CopyUpLargeMov             7e546f24     libvcruntime:memcpy.obj
 0001:00005f24       CopyUpLargeMov             7e546f24     libvcruntime:memmove.obj
 0001:00005f37       CopyUpSSE2Check            7e546f37     libvcruntime:memcpy.obj
 0001:00005f37       CopyUpSSE2Check            7e546f37     libvcruntime:memmove.obj
 0001:00005f50       AtomChk                    7e546f50     libvcruntime:memcpy.obj
 0001:00005f50       AtomChk                    7e546f50     libvcruntime:memmove.obj
 0001:00005f76       PalignHead4                7e546f76     libvcruntime:memcpy.obj
 0001:00005f76       PalignHead4                7e546f76     libvcruntime:memmove.obj
 0001:00005f89       PalignHead8                7e546f89     libvcruntime:memcpy.obj
 0001:00005f89       PalignHead8                7e546f89     libvcruntime:memmove.obj
 0001:00005fa0       PalignLoop                 7e546fa0     libvcruntime:memcpy.obj
 0001:00005fa0       PalignLoop                 7e546fa0     libvcruntime:memmove.obj
 0001:00005fb2       MovPalign12                7e546fb2     libvcruntime:memcpy.obj
 0001:00005fb2       MovPalign12                7e546fb2     libvcruntime:memmove.obj
 0001:00005fbc       PalignLoop12               7e546fbc     libvcruntime:memcpy.obj
 0001:00005fbc       PalignLoop12               7e546fbc     libvcruntime:memmove.obj
 0001:0000600d       MovPalign8                 7e54700d     libvcruntime:memcpy.obj
 0001:0000600d       MovPalign8                 7e54700d     libvcruntime:memmove.obj
 0001:00006018       PalignLoop8                7e547018     libvcruntime:memcpy.obj
 0001:00006018       PalignLoop8                7e547018     libvcruntime:memmove.obj
 0001:00006066       MovPalign4                 7e547066     libvcruntime:memcpy.obj
 0001:00006066       MovPalign4                 7e547066     libvcruntime:memmove.obj
 0001:00006070       PalignLoop4                7e547070     libvcruntime:memcpy.obj
 0001:00006070       PalignLoop4                7e547070     libvcruntime:memmove.obj
 0001:000060bc       PalignTail                 7e5470bc     libvcruntime:memcpy.obj
 0001:000060bc       PalignTail                 7e5470bc     libvcruntime:memmove.obj
 0001:000060d4       PalignTail4                7e5470d4     libvcruntime:memcpy.obj
 0001:000060d4       PalignTail4                7e5470d4     libvcruntime:memmove.obj
 0001:000060e7       PalignTail8                7e5470e7     libvcruntime:memcpy.obj
 0001:000060e7       PalignTail8                7e5470e7     libvcruntime:memmove.obj
 0001:000060fe       PalignTailLE3              7e5470fe     libvcruntime:memcpy.obj
 0001:000060fe       PalignTailLE3              7e5470fe     libvcruntime:memmove.obj
 0001:00006107       Dword_align                7e547107     libvcruntime:memcpy.obj
 0001:00006107       Dword_align                7e547107     libvcruntime:memmove.obj
 0001:0000610f       Dword_up_align_loop        7e54710f     libvcruntime:memcpy.obj
 0001:0000610f       Dword_up_align_loop        7e54710f     libvcruntime:memmove.obj
 0001:00006122       Dword_align_Ok             7e547122     libvcruntime:memcpy.obj
 0001:00006122       Dword_align_Ok             7e547122     libvcruntime:memmove.obj
 0001:0000613c       ByteCopyUp                 7e54713c     libvcruntime:memcpy.obj
 0001:0000613c       ByteCopyUp                 7e54713c     libvcruntime:memmove.obj
 0001:00006144       TrailingUpVec              7e547144     libvcruntime:memcpy.obj
 0001:00006144       TrailingUpVec              7e547144     libvcruntime:memmove.obj
 0001:00006154       TrailingUp0                7e547154     libvcruntime:memcpy.obj
 0001:00006154       TrailingUp0                7e547154     libvcruntime:memmove.obj
 0001:0000615c       TrailingUp1                7e54715c     libvcruntime:memcpy.obj
 0001:0000615c       TrailingUp1                7e54715c     libvcruntime:memmove.obj
 0001:00006168       TrailingUp2                7e547168     libvcruntime:memcpy.obj
 0001:00006168       TrailingUp2                7e547168     libvcruntime:memmove.obj
 0001:0000617c       TrailingUp3                7e54717c     libvcruntime:memcpy.obj
 0001:0000617c       TrailingUp3                7e54717c     libvcruntime:memmove.obj
 0001:00006194       CopyDown                   7e547194     libvcruntime:memcpy.obj
 0001:00006194       CopyDown                   7e547194     libvcruntime:memmove.obj
 0001:000061b9       CopyDownNotAligned         7e5471b9     libvcruntime:memcpy.obj
 0001:000061b9       CopyDownNotAligned         7e5471b9     libvcruntime:memmove.obj
 0001:000061c0       CopyDownAlignLoop          7e5471c0     libvcruntime:memcpy.obj
 0001:000061c0       CopyDownAlignLoop          7e5471c0     libvcruntime:memmove.obj
 0001:000061cd       CopyDownAligned            7e5471cd     libvcruntime:memcpy.obj
 0001:000061cd       CopyDownAligned            7e5471cd     libvcruntime:memmove.obj
 0001:000061f0       TrailingDownVec            7e5471f0     libvcruntime:memcpy.obj
 0001:000061f0       TrailingDownVec            7e5471f0     libvcruntime:memmove.obj
 0001:00006200       TrailingDown0              7e547200     libvcruntime:memcpy.obj
 0001:00006200       TrailingDown0              7e547200     libvcruntime:memmove.obj
 0001:00006208       TrailingDown1              7e547208     libvcruntime:memcpy.obj
 0001:00006208       TrailingDown1              7e547208     libvcruntime:memmove.obj
 0001:00006218       TrailingDown2              7e547218     libvcruntime:memcpy.obj
 0001:00006218       TrailingDown2              7e547218     libvcruntime:memmove.obj
 0001:0000622c       TrailingDown3              7e54722c     libvcruntime:memcpy.obj
 0001:0000622c       TrailingDown3              7e54722c     libvcruntime:memmove.obj
 0001:00006245       XmmMovLargeAlignTest       7e547245     libvcruntime:memcpy.obj
 0001:00006245       XmmMovLargeAlignTest       7e547245     libvcruntime:memmove.obj
 0001:0000624d       XmmMovAlignLoop            7e54724d     libvcruntime:memcpy.obj
 0001:0000624d       XmmMovAlignLoop            7e54724d     libvcruntime:memmove.obj
 0001:0000625c       XmmMovLargeLoop            7e54725c     libvcruntime:memcpy.obj
 0001:0000625c       XmmMovLargeLoop            7e54725c     libvcruntime:memmove.obj
 0001:000062cc       XmmMovSmallTest            7e5472cc     libvcruntime:memcpy.obj
 0001:000062cc       XmmMovSmallTest            7e5472cc     libvcruntime:memmove.obj
 0001:000062d1       XmmMovSmallLoop            7e5472d1     libvcruntime:memcpy.obj
 0001:000062d1       XmmMovSmallLoop            7e5472d1     libvcruntime:memmove.obj
 0001:000062f4       CopyDownSmall              7e5472f4     libvcruntime:memcpy.obj
 0001:000062f4       CopyDownSmall              7e5472f4     libvcruntime:memmove.obj
 0001:000062fc       CopyDownDwordLoop          7e5472fc     libvcruntime:memcpy.obj
 0001:000062fc       CopyDownDwordLoop          7e5472fc     libvcruntime:memmove.obj
 0001:00006311       CopyDownByteTest           7e547311     libvcruntime:memcpy.obj
 0001:00006311       CopyDownByteTest           7e547311     libvcruntime:memmove.obj
 0001:00006315       CopyDownByteLoop           7e547315     libvcruntime:memcpy.obj
 0001:00006315       CopyDownByteLoop           7e547315     libvcruntime:memmove.obj
 0001:00006324       CopyDownReturn             7e547324     libvcruntime:memcpy.obj
 0001:00006324       CopyDownReturn             7e547324     libvcruntime:memmove.obj
 0001:00006330       XmmCopy                    7e547330     libvcruntime:memcpy.obj
 0001:00006330       XmmCopy                    7e547330     libvcruntime:memmove.obj
 0001:0000633d       XmmCopyAligned             7e54733d     libvcruntime:memcpy.obj
 0001:0000633d       XmmCopyAligned             7e54733d     libvcruntime:memmove.obj
 0001:00006350       XmmCopyLargeLoop           7e547350     libvcruntime:memcpy.obj
 0001:00006350       XmmCopyLargeLoop           7e547350     libvcruntime:memmove.obj
 0001:000063ad       XmmCopySmallTest           7e5473ad     libvcruntime:memcpy.obj
 0001:000063ad       XmmCopySmallTest           7e5473ad     libvcruntime:memmove.obj
 0001:000063c0       XmmCopySmallLoop           7e5473c0     libvcruntime:memcpy.obj
 0001:000063c0       XmmCopySmallLoop           7e5473c0     libvcruntime:memmove.obj
 0001:000063db       CopyUpDwordMov             7e5473db     libvcruntime:memcpy.obj
 0001:000063db       CopyUpDwordMov             7e5473db     libvcruntime:memmove.obj
 0001:000063e0       CopyUpDwordTest            7e5473e0     libvcruntime:memcpy.obj
 0001:000063e0       CopyUpDwordTest            7e5473e0     libvcruntime:memmove.obj
 0001:000063e7       CopyUpDwordLoop            7e5473e7     libvcruntime:memcpy.obj
 0001:000063e7       CopyUpDwordLoop            7e5473e7     libvcruntime:memmove.obj
 0001:000063f6       CopyUpByteTest             7e5473f6     libvcruntime:memcpy.obj
 0001:000063f6       CopyUpByteTest             7e5473f6     libvcruntime:memmove.obj
 0001:000063fd       CopyUpByteLoop             7e5473fd     libvcruntime:memcpy.obj
 0001:000063fd       CopyUpByteLoop             7e5473fd     libvcruntime:memmove.obj
 0001:00006410       CopyUpReturn               7e547410     libvcruntime:memcpy.obj
 0001:00006410       CopyUpReturn               7e547410     libvcruntime:memmove.obj
 0001:00006420       XmmCopyUnaligned           7e547420     libvcruntime:memcpy.obj
 0001:00006420       XmmCopyUnaligned           7e547420     libvcruntime:memmove.obj
 0001:00006433       XmmAlignByte               7e547433     libvcruntime:memcpy.obj
 0001:00006433       XmmAlignByte               7e547433     libvcruntime:memmove.obj
 0001:0000643c       XmmAlignDwordTest          7e54743c     libvcruntime:memcpy.obj
 0001:0000643c       XmmAlignDwordTest          7e54743c     libvcruntime:memmove.obj
 0001:00006441       XmmAlignDwordLoop          7e547441     libvcruntime:memcpy.obj
 0001:00006441       XmmAlignDwordLoop          7e547441     libvcruntime:memmove.obj
 0001:0000644e       XmmAlignAdjustCnt          7e54744e     libvcruntime:memcpy.obj
 0001:0000644e       XmmAlignAdjustCnt          7e54744e     libvcruntime:memmove.obj
 0001:00006460       $$000000                   7e547460     libvcruntime:memset.obj
 0001:000064a5       XMMMov                     7e5474a5     libvcruntime:memset.obj
 0001:000064e0       LargeRangeBytes            7e5474e0     libvcruntime:memset.obj
 0001:0000651d       XmmMovSmall                7e54751d     libvcruntime:memset.obj
 0001:00006530       XmmSmallLoop               7e547530     libvcruntime:memset.obj
 0001:00006535       MidRangeBytes              7e547535     libvcruntime:memset.obj
 0001:00006551       XMMTrailingBytes           7e547551     libvcruntime:memset.obj
 0001:00006565       SmallMov                   7e547565     libvcruntime:memset.obj
 0001:0000656d       ByteLoop                   7e54756d     libvcruntime:memset.obj
 0001:0000657b       DwordTest                  7e54757b     libvcruntime:memset.obj
 0001:0000658b       QwordTest                  7e54758b     libvcruntime:memset.obj
 0001:000065a0       QwordLoop                  7e5475a0     libvcruntime:memset.obj
 0001:000065b3       toend                      7e5475b3     libvcruntime:memset.obj
 0001:00006a80       _ValidateLocalCookies      7e547a80 f   libvcruntime:chandler4.obj
 0001:00006e3a       ??$BuildCatchObjectHelperInternal@V__FrameHandler3@@@@YAHPAUEHExceptionRecord@@PAXPBU_s_HandlerType@@PBU_s_CatchableType@@@Z 7e547e3a f   libvcruntime:frame.obj
 0001:00006f78       ??$BuildCatchObjectInternal@V__FrameHandler3@@@@YAXPAUEHExceptionRecord@@PAXPBU_s_HandlerType@@PBU_s_CatchableType@@@Z 7e547f78 f   libvcruntime:frame.obj
 0001:00007011       ??$CatchIt@V__FrameHandler3@@@@YAXPAUEHExceptionRecord@@PAUEHRegistrationNode@@PAU_CONTEXT@@PAXPBU_s_FuncInfo@@PBU_s_HandlerType@@PBU_s_CatchableType@@PBU_s_TryBlockMapEntry@@H1EE@Z 7e548011 f   libvcruntime:frame.obj
 0001:00007091       ??$FindHandler@V__FrameHandler3@@@@YAXPAUEHExceptionRecord@@PAUEHRegistrationNode@@PAU_CONTEXT@@PAXPBU_s_FuncInfo@@EH1@Z 7e548091 f   libvcruntime:frame.obj
 0001:00007436       ??$FindHandlerForForeignException@V__FrameHandler3@@@@YAXPAUEHExceptionRecord@@PAUEHRegistrationNode@@PAU_CONTEXT@@PAXPBU_s_FuncInfo@@HH1@Z 7e548436 f   libvcruntime:frame.obj
 0001:00007757       ?CallCatchBlock@@YAPAXPAUEHExceptionRecord@@PAUEHRegistrationNode@@PAU_CONTEXT@@PBU_s_FuncInfo@@PAXHK@Z 7e548757 f   libvcruntime:frame.obj
 0001:00007926       ?CallUnexpected@@YAXPBU_s_ESTypeList@@@Z 7e548926 f   libvcruntime:frame.obj
 0001:00007946       __catch$?CallUnexpected@@YAXPBU_s_ESTypeList@@@Z$0 7e548946 f   libvcruntime:frame.obj
 0001:00007965       ?ExFilterRethrow@@YAHPAU_EXCEPTION_POINTERS@@@Z 7e548965 f   libvcruntime:frame.obj
 0001:00007aaf       ?IsInExceptionSpec@@YAEPAUEHExceptionRecord@@PBU_s_ESTypeList@@@Z 7e548aaf f   libvcruntime:frame.obj
 0001:00007b80       $$000000                   7e548b80     libvcruntime:lowhelpr.obj
 0001:00007bbf       _NLG_Continue              7e548bbf     libvcruntime:lowhelpr.obj
 0001:00007c00       $$000000                   7e548c00     libvcruntime:exsup4.obj
 0001:00007c32       _lu_top                    7e548c32     libvcruntime:exsup4.obj
 0001:00007c91       _lu_done                   7e548c91     libvcruntime:exsup4.obj
 0001:00007ca0       $$000000                   7e548ca0     libvcruntime:exsup4.obj
 0001:00007ca0       __unwind_handler4          7e548ca0 f   libvcruntime:exsup4.obj
 0001:00007cf0       $$000000                   7e548cf0     libvcruntime:exsup4.obj
 0001:00007d10       $$000000                   7e548d10     libvcruntime:exsup4.obj
 0001:00007d30       $$000000                   7e548d30     libvcruntime:exsup4.obj
 0001:00007d45       ReturnPoint                7e548d45     libvcruntime:exsup4.obj
 0001:00007d50       $$000000                   7e548d50     libvcruntime:exsup4.obj
 0001:00007dd2       ?try_get_function@@YAPAXW4function_id@?A0x14174aea@@QBDQBW4module_id@2@2@Z 7e548dd2 f   libvcruntime:winapi_downlevel.obj
 0001:00007e72       ?try_load_library_from_system_directory@@YAPAUHINSTANCE__@@QB_W@Z 7e548e72 f   libvcruntime:winapi_downlevel.obj
 0001:00008040       $$000000                   7e549040     libvcruntime:exsup.obj
 0001:00008050       $$000000                   7e549050     libvcruntime:exsup.obj
 0001:0000805b       __NLG_Go                   7e54905b     libvcruntime:exsup.obj
 0001:00008070       $$000000                   7e549070     libvcruntime:exsup.obj
 0001:000086c0       $$000000                   7e5496c0     libucrt:strlen.obj
 0001:00008766       ??$common_getenv@_W@@YAPA_WQB_W@Z 7e549766 f   libucrt:getenv.obj
 0001:000087e5       ??$common_getenv_nolock@_W@@YAPA_WQB_W@Z 7e5497e5 f   libucrt:getenv.obj
 0001:00008936       ??$?RV<lambda_f5952838e36297a1e2e9d6c748429792>@@AAV<lambda_2116bde18c9e5f34230805ea4a4660ed>@@V<lambda_3c7107de1cc98bf330a3031f42c322a3>@@@?$__crt_seh_guarded_call@PAD@@QAEPAD$$QAV<lambda_f5952838e36297a1e2e9d6c748429792>@@AAV<lambda_2116bde18c9e5f34230805ea4a4660ed>@@$$QAV<lambda_3c7107de1cc98bf330a3031f42c322a3>@@@Z 7e549936 f   libucrt:setlocale.obj
 0001:00008991       ??R<lambda_2116bde18c9e5f34230805ea4a4660ed>@@QBEPADXZ 7e549991 f   libucrt:setlocale.obj
 0001:00008af0       _call_wsetlocale           7e549af0 f   libucrt:setlocale.obj
 0001:000092c0       $$000000                   7e54a2c0     libucrt:strcspn.obj
 0001:000098ba       ??$?RV<lambda_03b1d95aef87969028cfba75ccab2455>@@AAV<lambda_6e4b09c48022b2350581041d5f6b0c4c>@@V<lambda_22bdf7517842c4b3e53723af5aa32b9e>@@@?$__crt_seh_guarded_call@X@@QAEX$$QAV<lambda_03b1d95aef87969028cfba75ccab2455>@@AAV<lambda_6e4b09c48022b2350581041d5f6b0c4c>@@$$QAV<lambda_22bdf7517842c4b3e53723af5aa32b9e>@@@Z 7e54a8ba f   libucrt:exit.obj
 0001:00009907       ??R<lambda_6e4b09c48022b2350581041d5f6b0c4c>@@QBE@XZ 7e54a907 f   libucrt:exit.obj
 0001:000099f2       ?common_exit@@YAXHW4_crt_exit_cleanup_mode@@W4_crt_exit_return_mode@@@Z 7e54a9f2 f   libucrt:exit.obj
 0001:00009a89       ?exit_or_terminate_process@@YAXI@Z 7e54aa89 f   libucrt:exit.obj
 0001:00009aba       ?is_managed_app@@YA_NXZ    7e54aaba f   libucrt:exit.obj
 0001:00009afd       ?should_call_terminate_process@@YA_NXZ 7e54aafd f   libucrt:exit.obj
 0001:00009b1f       ?try_cor_exit_process@@YAXI@Z 7e54ab1f f   libucrt:exit.obj
 0001:00009bdc       ??$common_configure_argv@D@@YAHW4_crt_argv_mode@@@Z 7e54abdc f   libucrt:argv_parsing.obj
 0001:00009d19       ??$parse_command_line@D@@YAXPADPAPAD0PAI2@Z 7e54ad19 f   libucrt:argv_parsing.obj
 0001:00009ee7       ??$common_get_or_create_environment_nolock@_W@@YAPAPA_WXZ 7e54aee7 f   libucrt:environment_initialization.obj
 0001:00009f13       ??$common_initialize_environment_nolock@D@@YAHXZ 7e54af13 f   libucrt:environment_initialization.obj
 0001:00009f6d       ??$common_initialize_environment_nolock@_W@@YAHXZ 7e54af6d f   libucrt:environment_initialization.obj
 0001:00009fc2       ??$create_environment@D@@YAQAPADQAD@Z 7e54afc2 f   libucrt:environment_initialization.obj
 0001:0000a0a4       ??$create_environment@_W@@YAQAPA_WQA_W@Z 7e54b0a4 f   libucrt:environment_initialization.obj
 0001:0000a1c2       ??$free_environment@D@@YAXQAPAD@Z 7e54b1c2 f   libucrt:environment_initialization.obj
 0001:0000a1c2       ??$free_environment@_W@@YAXQAPA_W@Z 7e54b1c2 f   libucrt:environment_initialization.obj
 0001:0000a1f1       ??$initialize_environment_by_cloning_nolock@_W@@YAHXZ 7e54b1f1 f   libucrt:environment_initialization.obj
 0001:0000a272       ??$uninitialize_environment_internal@D@@YAXAAPAPAD@Z 7e54b272 f   libucrt:environment_initialization.obj
 0001:0000a28d       ??$uninitialize_environment_internal@_W@@YAXAAPAPA_W@Z 7e54b28d f   libucrt:environment_initialization.obj
 0001:0000a303       ??$?RV<lambda_69a2805e680e0e292e8ba93315fe43a8>@@AAV<lambda_f03950bc5685219e0bcd2087efbe011e>@@V<lambda_03fcd07e894ec930e3f35da366ca99d6>@@@?$__crt_seh_guarded_call@H@@QAEH$$QAV<lambda_69a2805e680e0e292e8ba93315fe43a8>@@AAV<lambda_f03950bc5685219e0bcd2087efbe011e>@@$$QAV<lambda_03fcd07e894ec930e3f35da366ca99d6>@@@Z 7e54b303 f   libucrt:onexit.obj
 0001:0000a35e       ??$?RV<lambda_8e746cf0007f6ed984d6f78af1fec997>@@AAV<lambda_22ebabd17bc4fa466a2aca6d8deb888d>@@V<lambda_18ed0c0b38a6dc0daf1e7ac6d6adf05e>@@@?$__crt_seh_guarded_call@H@@QAEH$$QAV<lambda_8e746cf0007f6ed984d6f78af1fec997>@@AAV<lambda_22ebabd17bc4fa466a2aca6d8deb888d>@@$$QAV<lambda_18ed0c0b38a6dc0daf1e7ac6d6adf05e>@@@Z 7e54b35e f   libucrt:onexit.obj
 0001:0000a3d8       ??R<lambda_22ebabd17bc4fa466a2aca6d8deb888d>@@QBEHXZ 7e54b3d8 f   libucrt:onexit.obj
 0001:0000a4da       ??R<lambda_f03950bc5685219e0bcd2087efbe011e>@@QBEHXZ 7e54b4da f   libucrt:onexit.obj
 0001:0000a664       _uninitialize_allocated_io_buffers 7e54b664 f   libucrt:initialization.obj
 0001:0000a6b4       _initialize_environment    7e54b6b4 f   libucrt:initialization.obj
 0001:0000a6b4       _initialize_global_state_isolation 7e54b6b4 f   libucrt:initialization.obj
 0001:0000a6b4       _report_memory_leaks       7e54b6b4 f   libucrt:initialization.obj
 0001:0000a6b4       _uninitialize_c            7e54b6b4 f   libucrt:initialization.obj
 0001:0000a6b4       _uninitialize_global_state_isolation 7e54b6b4 f   libucrt:initialization.obj
 0001:0000a6b7       _initialize_global_variables 7e54b6b7 f   libucrt:initialization.obj
 0001:0000a6c4       _initialize_c              7e54b6c4 f   libucrt:initialization.obj
 0001:0000a6de       _uninitialize_environment  7e54b6de f   libucrt:initialization.obj
 0001:0000a6e6       _initialize_pointers       7e54b6e6 f   libucrt:initialization.obj
 0001:0000a714       _uninitialize_vcruntime    7e54b714 f   libucrt:initialization.obj
 0001:0000a71d       _uninitialize_allocated_memory 7e54b71d f   libucrt:initialization.obj
 0001:0000a734       ??R<lambda_af42a3ee9806e9a7305d451646e05244>@@QBEXAAPAU__crt_multibyte_data@@@Z 7e54b734 f   libucrt:initialization.obj
 0001:0000aeb0       $$000000                   7e54beb0     libucrt:strncmp.obj
 0001:0000af62       ??$?RV<lambda_15ade71b0218206bbe3333a0c9b79046>@@AAV<lambda_da44e0f8b0f19ba52fefafb335991732>@@V<lambda_207f2d024fc103971653565357d6cd41>@@@?$__crt_seh_guarded_call@X@@QAEX$$QAV<lambda_15ade71b0218206bbe3333a0c9b79046>@@AAV<lambda_da44e0f8b0f19ba52fefafb335991732>@@$$QAV<lambda_207f2d024fc103971653565357d6cd41>@@@Z 7e54bf62 f   libucrt:per_thread_data.obj
 0001:0000afb4       ??$?RV<lambda_38edbb1296d33220d7e4dd0ed76b244a>@@AAV<lambda_5ce1d447e08cb34b2473517608e21441>@@V<lambda_fb385d3da700c9147fc39e65dd577a8c>@@@?$__crt_seh_guarded_call@X@@QAEX$$QAV<lambda_38edbb1296d33220d7e4dd0ed76b244a>@@AAV<lambda_5ce1d447e08cb34b2473517608e21441>@@$$QAV<lambda_fb385d3da700c9147fc39e65dd577a8c>@@@Z 7e54bfb4 f   libucrt:per_thread_data.obj
 0001:0000b01f       ??$?RV<lambda_6affb1475c98b40b75cdec977db92e3c>@@AAV<lambda_b8d4b9c228a6ecc3f80208dbb4b4a104>@@V<lambda_608742c3c92a14382c1684fc64f96c88>@@@?$__crt_seh_guarded_call@X@@QAEX$$QAV<lambda_6affb1475c98b40b75cdec977db92e3c>@@AAV<lambda_b8d4b9c228a6ecc3f80208dbb4b4a104>@@$$QAV<lambda_608742c3c92a14382c1684fc64f96c88>@@@Z 7e54c01f f   libucrt:per_thread_data.obj
 0001:0000b074       ??$?RV<lambda_a7e850c220f1c8d1e6efeecdedd162c6>@@AAV<lambda_46720907175c18b6c9d2717bc0d2d362>@@V<lambda_9048902d66e8d99359bc9897bbb930a8>@@@?$__crt_seh_guarded_call@X@@QAEX$$QAV<lambda_a7e850c220f1c8d1e6efeecdedd162c6>@@AAV<lambda_46720907175c18b6c9d2717bc0d2d362>@@$$QAV<lambda_9048902d66e8d99359bc9897bbb930a8>@@@Z 7e54c074 f   libucrt:per_thread_data.obj
 0001:0000b0ce       ?construct_ptd@@YAXQAU__acrt_ptd@@QAPAU__crt_locale_data@@@Z 7e54c0ce f   libucrt:per_thread_data.obj
 0001:0000b167       ?destroy_fls@@YGXPAX@Z     7e54c167 f   libucrt:per_thread_data.obj
 0001:0000b188       ?destroy_ptd@@YAXQAU__acrt_ptd@@@Z 7e54c188 f   libucrt:per_thread_data.obj
 0001:0000b255       ?replace_current_thread_locale_nolock@@YAXQAU__acrt_ptd@@QAU__crt_locale_data@@@Z 7e54c255 f   libucrt:per_thread_data.obj
 0001:0000b5b7       ??$?RV<lambda_4fdada1b837b2abbf20876fac97688ad>@@AAV<lambda_b57350f2640456a0859d250846f69caf>@@V<lambda_eed5e4f92b5b7d55fa22c48c484aaa54>@@@?$__crt_seh_guarded_call@X@@QAEX$$QAV<lambda_4fdada1b837b2abbf20876fac97688ad>@@AAV<lambda_b57350f2640456a0859d250846f69caf>@@$$QAV<lambda_eed5e4f92b5b7d55fa22c48c484aaa54>@@@Z 7e54c5b7 f   libucrt:wsetlocale.obj
 0001:0000b604       ??$?RV<lambda_ac03c5d59bd18b09cb88b28331f6bfed>@@AAV<lambda_2a444430fde8c29194d880d93eed5e8f>@@AAV<lambda_02db5278e8aef8b5e4976579d73f5304>@@@?$__crt_seh_guarded_call@X@@QAEX$$QAV<lambda_ac03c5d59bd18b09cb88b28331f6bfed>@@AAV<lambda_2a444430fde8c29194d880d93eed5e8f>@@AAV<lambda_02db5278e8aef8b5e4976579d73f5304>@@@Z 7e54c604 f   libucrt:wsetlocale.obj
 0001:0000b649       ??$?RV<lambda_e5124f882df8998aaf41531e079ba474>@@AAV<lambda_3e16ef9562a7dcce91392c22ab16ea36>@@V<lambda_e25ca0880e6ef98be67edffd8c599615>@@@?$__crt_seh_guarded_call@X@@QAEX$$QAV<lambda_e5124f882df8998aaf41531e079ba474>@@AAV<lambda_3e16ef9562a7dcce91392c22ab16ea36>@@$$QAV<lambda_e25ca0880e6ef98be67edffd8c599615>@@@Z 7e54c649 f   libucrt:wsetlocale.obj
 0001:0000b731       ??R<lambda_2a444430fde8c29194d880d93eed5e8f>@@QBE@XZ 7e54c731 f   libucrt:wsetlocale.obj
 0001:0000b79b       ??R<lambda_b57350f2640456a0859d250846f69caf>@@QBEXXZ 7e54c79b f   libucrt:wsetlocale.obj
 0001:0000bb64       __copytlocinfo_nolock      7e54cb64 f   libucrt:wsetlocale.obj
 0001:0000bb93       __expandlocale             7e54cb93 f   libucrt:wsetlocale.obj
 0001:0000c01d       __wsetlocale_get_all       7e54d01d f   libucrt:wsetlocale.obj
 0001:0000c1b8       __wsetlocale_nolock        7e54d1b8 f   libucrt:wsetlocale.obj
 0001:0000c4a8       __wsetlocale_set_cat       7e54d4a8 f   libucrt:wsetlocale.obj
 0001:0000c858       _get_default_code_page     7e54d858 f   libucrt:wsetlocale.obj
 0001:0000c887       _parse_bcp47               7e54d887 f   libucrt:wsetlocale.obj
 0001:0000ca5d       _parse_bcp47_code_page     7e54da5d f   libucrt:wsetlocale.obj
 0001:0000ca9c       _parse_bcp47_language      7e54da9c f   libucrt:wsetlocale.obj
 0001:0000cb0e       _parse_bcp47_region        7e54db0e f   libucrt:wsetlocale.obj
 0001:0000cbcc       _parse_bcp47_script        7e54dbcc f   libucrt:wsetlocale.obj
 0001:0000cc3c       _string_is_alpha           7e54dc3c f   libucrt:wsetlocale.obj
 0001:0000ce46       ?<lambda_invoker_stdcall>@<lambda_29d3c280b90b41c2ae070ffca879996a>@@CGHPA_W@Z 7e54de46 f   libucrt:winapi_thunks.obj
 0001:0000ce53       ??$?RV<lambda_6b4b7855443974f2b4b77000ea21c99c>@@AAV<lambda_8f7d3b162ab39427f4fa9995c67a7986>@@V<lambda_cc9a5ba8a5d8428b9634eab82665e5dc>@@@?$__crt_seh_guarded_call@H@@QAEH$$QAV<lambda_6b4b7855443974f2b4b77000ea21c99c>@@AAV<lambda_8f7d3b162ab39427f4fa9995c67a7986>@@$$QAV<lambda_cc9a5ba8a5d8428b9634eab82665e5dc>@@@Z 7e54de53 f   libucrt:winapi_thunks.obj
 0001:0000cecf       ??R<lambda_29d3c280b90b41c2ae070ffca879996a>@@QBEHPA_W@Z 7e54decf f   libucrt:winapi_thunks.obj
 0001:0000cefe       ?try_get_AreFileApisANSI@@YAP6GHXZXZ 7e54defe f   libucrt:winapi_thunks.obj
 0001:0000cf18       ?try_get_CompareStringEx@@YAP6GHPB_WK0H0HPAU_nlsversioninfo@@PAXJ@ZXZ 7e54df18 f   libucrt:winapi_thunks.obj
 0001:0000cf32       ?try_get_EnumSystemLocalesEx@@YAP6GHP6GHPA_WKJ@ZKJPAX@ZXZ 7e54df32 f   libucrt:winapi_thunks.obj
 0001:0000cf4c       ?try_get_GetDateFormatEx@@YAP6GHPB_WKPBU_SYSTEMTIME@@0PA_WH0@ZXZ 7e54df4c f   libucrt:winapi_thunks.obj
 0001:0000cf66       ?try_get_GetLocaleInfoEx@@YAP6GHPB_WKPA_WH@ZXZ 7e54df66 f   libucrt:winapi_thunks.obj
 0001:0000cf80       ?try_get_GetTimeFormatEx@@YAP6GHPB_WKPBU_SYSTEMTIME@@0PA_WH@ZXZ 7e54df80 f   libucrt:winapi_thunks.obj
 0001:0000cf9a       ?try_get_GetUserDefaultLocaleName@@YAP6GHPA_WH@ZXZ 7e54df9a f   libucrt:winapi_thunks.obj
 0001:0000cfb4       ?try_get_IsValidLocaleName@@YAP6GHPB_W@ZXZ 7e54dfb4 f   libucrt:winapi_thunks.obj
 0001:0000cfce       ?try_get_LCIDToLocaleName@@YAP6GHKPA_WHK@ZXZ 7e54dfce f   libucrt:winapi_thunks.obj
 0001:0000cfe8       ?try_get_LCMapStringEx@@YAP6GHPB_WK0HPA_WHPAU_nlsversioninfo@@PAXJ@ZXZ 7e54dfe8 f   libucrt:winapi_thunks.obj
 0001:0000d002       ?try_get_LocaleNameToLCID@@YAP6GKPB_WK@ZXZ 7e54e002 f   libucrt:winapi_thunks.obj
 0001:0000d01c       ?try_get_first_available_module@@YAPAUHINSTANCE__@@QBW4module_id@?A0x391cf84c@@0@Z 7e54e01c f   libucrt:winapi_thunks.obj
 0001:0000d0e7       ?try_get_function@@YAPAXW4function_id@?A0x391cf84c@@QBDQBW4module_id@2@2@Z 7e54e0e7 f   libucrt:winapi_thunks.obj
 0001:0000d67b       ?_mbstowcs_internal@@YAHPAIPA_WIPBDIAAV__crt_cached_ptd_host@@@Z 7e54e67b f   libucrt:mbstowcs.obj
 0001:0000d75b       ?_mbstowcs_l_helper@@YAIPA_WPBDIAAV__crt_cached_ptd_host@@@Z 7e54e75b f   libucrt:mbstowcs.obj
 0001:0000d963       ?_wcstombs_internal@@YAHPAIPADIPB_WIAAV__crt_cached_ptd_host@@@Z 7e54e963 f   libucrt:wcstombs.obj
 0001:0000da41       ?_wcstombs_l_helper@@YAIPADPB_WIAAV__crt_cached_ptd_host@@@Z 7e54ea41 f   libucrt:wcstombs.obj
 0001:0000dde2       ?InternalGetLocaleInfoA@@YAHQAU__crt_locale_pointers@@QB_WKQADH@Z 7e54ede2 f   libucrt:getlocaleinfoa.obj
 0001:0000e182       ?__acrt_LCMapStringA_stat@@YAHPAU__crt_locale_pointers@@PB_WKPBDHPADHHH@Z 7e54f182 f   libucrt:lcmapstringa.obj
 0001:0000f092       ?initialize_inherited_file_handles_nolock@@YAXXZ 7e550092 f   libucrt:ioinit.obj
 0001:0000f148       ?initialize_stdio_handles_nolock@@YAXXZ 7e550148 f   libucrt:ioinit.obj
 0001:0000f284       ??$?RV<lambda_cbab9ec6f41b0180b23cc171c22676b0>@@AAV<lambda_44731a7d0e6d81c3e6aa82d741081786>@@V<lambda_4b292cb8dd18144e164572427af410ab>@@@?$__crt_seh_guarded_call@P6AXH@Z@@QAEP6AXH@Z$$QAV<lambda_cbab9ec6f41b0180b23cc171c22676b0>@@AAV<lambda_44731a7d0e6d81c3e6aa82d741081786>@@$$QAV<lambda_4b292cb8dd18144e164572427af410ab>@@@Z 7e550284 f   libucrt:signal.obj
 0001:0000f2e8       ?get_global_action_nolock@@YAPAP6AXH@ZH@Z 7e5502e8 f   libucrt:signal.obj
 0001:0000f32a       ?siglookup@@YAPAU__crt_signal_action_t@@HQAU1@@Z 7e55032a f   libucrt:signal.obj
 0001:0000f8df       ?<lambda_invoker_cdecl>@<lambda_838c7f62c73c983481e27c09e84b0b5d>@@CAHPBX0@Z 7e5508df f   libucrt:argv_wildcards.obj
 0001:0000f9bd       ??$common_expand_argv_wildcards@D@@YAHQAPADQAPAPAD@Z 7e5509bd f   libucrt:argv_wildcards.obj
 0001:0000fb3a       ??$copy_and_add_argument_to_buffer@D@@YAHQBD0IAAV?$argument_list@D@?A0x5f5c8891@@@Z 7e550b3a f   libucrt:argv_wildcards.obj
 0001:0000fbeb       ??$expand_argument_wildcards@D@@YAHQAD0AAV?$argument_list@D@?A0x5f5c8891@@@Z 7e550beb f   libucrt:argv_wildcards.obj
 0001:0000fe70       ??1?$argument_list@D@?A0x5f5c8891@@QAE@XZ 7e550e70 f   libucrt:argv_wildcards.obj
 0001:0000fed5       ?expand_if_necessary@?$argument_list@D@?A0x5f5c8891@@AAEHXZ 7e550ed5 f   libucrt:argv_wildcards.obj
 0001:00010008       ??$?RV<lambda_ceb1ee4838e85a9d631eb091e2fbe199>@@AAV<lambda_ae742caa10f662c28703da3d2ea5e57e>@@V<lambda_cd08b5d6af4937fe54fc07d0c9bf6b37>@@@?$__crt_seh_guarded_call@X@@QAEX$$QAV<lambda_ceb1ee4838e85a9d631eb091e2fbe199>@@AAV<lambda_ae742caa10f662c28703da3d2ea5e57e>@@$$QAV<lambda_cd08b5d6af4937fe54fc07d0c9bf6b37>@@@Z 7e551008 f   libucrt:mbctype.obj
 0001:00010055       ??R<lambda_ae742caa10f662c28703da3d2ea5e57e>@@QBEXXZ 7e551055 f   libucrt:mbctype.obj
 0001:000100d8       ?CPtoLocaleName@@YAPB_WH@Z 7e5510d8 f   libucrt:mbctype.obj
 0001:00010116       ?getSystemCP@@YAHH@Z       7e551116 f   libucrt:mbctype.obj
 0001:00010187       ?setSBCS@@YAXPAU__crt_multibyte_data@@@Z 7e551187 f   libucrt:mbctype.obj
 0001:000101ea       ?setSBUpLow@@YAXPAU__crt_multibyte_data@@@Z 7e5511ea f   libucrt:mbctype.obj
 0001:00010396       ?setmbcp_internal@@YAHH_NQAU__acrt_ptd@@QAPAU__crt_multibyte_data@@@Z 7e551396 f   libucrt:mbctype.obj
 0001:000104eb       ?update_thread_multibyte_data_internal@@YAPAU__crt_multibyte_data@@QAU__acrt_ptd@@QAPAU1@@Z 7e5514eb f   libucrt:mbctype.obj
 0001:000107ee       _memcpy_s                  7e5517ee f   libucrt:mbctype.obj
 0001:0001086f       ?x_ismbbtype_l@@YAHPAU__crt_locale_pointers@@IHH@Z 7e55186f f   libucrt:ismbbyte.obj
 0001:000108f0       ?find_end_of_double_null_terminated_sequence@@YAPB_WQB_W@Z 7e5518f0 f   libucrt:get_environment_from_os.obj
 0001:00010a15       ??$common_set_variable_in_environment_nolock@_W@@YAHQA_WH@Z 7e551a15 f   libucrt:setenv.obj
 0001:00010c94       ??$copy_environment@_W@@YAPAPA_WQAPA_W@Z 7e551c94 f   libucrt:setenv.obj
 0001:00010d52       ??$ensure_current_environment_is_not_initial_environment_nolock@_W@@YAXXZ 7e551d52 f   libucrt:setenv.obj
 0001:00010d6c       ??$find_in_environment_nolock@_W@@YAHQB_WI@Z 7e551d6c f   libucrt:setenv.obj
 0001:00010f49       ??$?RV<lambda_2866be3712abc81a800a822484c830d8>@@AAV<lambda_39ca0ed439415581b5b15c265174cece>@@V<lambda_2b24c74d71094a6cd0cb82e44167d71b>@@@?$__crt_seh_guarded_call@X@@QAEX$$QAV<lambda_2866be3712abc81a800a822484c830d8>@@AAV<lambda_39ca0ed439415581b5b15c265174cece>@@$$QAV<lambda_2b24c74d71094a6cd0cb82e44167d71b>@@@Z 7e551f49 f   libucrt:fflush.obj
 0001:00010fd5       ??$?RV<lambda_2cc53f568c5a2bb6f192f930a45d44ea>@@AAV<lambda_ab61a845afdef5b7c387490eaf3616ee>@@V<lambda_c2ffc0b7726aa6be21d5f0026187e748>@@@?$__crt_seh_guarded_call@X@@QAEX$$QAV<lambda_2cc53f568c5a2bb6f192f930a45d44ea>@@AAV<lambda_ab61a845afdef5b7c387490eaf3616ee>@@$$QAV<lambda_c2ffc0b7726aa6be21d5f0026187e748>@@@Z 7e551fd5 f   libucrt:fflush.obj
 0001:00011081       ?common_flush_all@@YAH_N@Z 7e552081 f   libucrt:fflush.obj
 0001:000110ce       ?common_flush_all_should_try_to_flush_stream@@YA_NV__crt_stdio_stream@@QAH@Z 7e5520ce f   libucrt:fflush.obj
 0001:00011101       ?is_stream_flushable_or_commitable@@YA_NJ@Z 7e552101 f   libucrt:fflush.obj
 0001:00011cc5       ?free_crt_array_internal@@YAXQAPBXI@Z 7e552cc5 f   libucrt:inittime.obj
 0001:00011cea       ?initialize_lc_time@@YA_NQAU__crt_lc_time_data@@QAU__crt_locale_data@@@Z 7e552cea f   libucrt:inittime.obj
 0001:000120c5       ??$common_tcscat_s@_W@@YAHQA_WIQB_W@Z 7e5530c5 f   libucrt:wcscat_s.obj
 0001:00012148       ??$common_tcsncat_s@_W@@YAHQA_WIQB_WI@Z 7e553148 f   libucrt:wcsncat_s.obj
 0001:00012240       ??$common_tcsncpy_s@_W@@YAHQA_WIQB_WI@Z 7e553240 f   libucrt:wcsncpy_s.obj
 0001:000123c0       _GetLocaleNameFromDefault  7e5533c0 f   libucrt:get_qualified_locale.obj
 0001:00012447       _GetLocaleNameFromLangCountry 7e553447 f   libucrt:get_qualified_locale.obj
 0001:000124e0       _GetLocaleNameFromLanguage 7e5534e0 f   libucrt:get_qualified_locale.obj
 0001:00012539       _GetPrimaryLen             7e553539 f   libucrt:get_qualified_locale.obj
 0001:0001256d       _LangCountryEnumProcEx@12  7e55356d f   libucrt:get_qualified_locale.obj
 0001:0001284d       _LanguageEnumProcEx@12     7e55384d f   libucrt:get_qualified_locale.obj
 0001:0001290c       _ProcessCodePage           7e55390c f   libucrt:get_qualified_locale.obj
 0001:00012a02       _TestDefaultCountry        7e553a02 f   libucrt:get_qualified_locale.obj
 0001:00012a4f       _TranslateName             7e553a4f f   libucrt:get_qualified_locale.obj
 0001:00012cb7       _CountryEnumProc@4         7e553cb7 f   libucrt:getqloc_downlevel.obj
 0001:00012d5e       _GetLcidFromCountry        7e553d5e f   libucrt:getqloc_downlevel.obj
 0001:00012da9       _GetLcidFromLangCountry    7e553da9 f   libucrt:getqloc_downlevel.obj
 0001:00012e44       _GetLcidFromLanguage       7e553e44 f   libucrt:getqloc_downlevel.obj
 0001:00012ea3       _GetPrimaryLen             7e553ea3 f   libucrt:getqloc_downlevel.obj
 0001:00012ecf       _LangCountryEnumProc@4     7e553ecf f   libucrt:getqloc_downlevel.obj
 0001:00013122       _LanguageEnumProc@4        7e554122 f   libucrt:getqloc_downlevel.obj
 0001:000131f7       _LcidFromHexString         7e5541f7 f   libucrt:getqloc_downlevel.obj
 0001:0001324b       _ProcessCodePage           7e55424b f   libucrt:getqloc_downlevel.obj
 0001:0001332c       _TestDefaultCountry        7e55432c f   libucrt:getqloc_downlevel.obj
 0001:00013351       _TestDefaultLanguage       7e554351 f   libucrt:getqloc_downlevel.obj
 0001:000133bf       _TranslateName             7e5543bf f   libucrt:getqloc_downlevel.obj
 0001:000137e8       ?GetTableIndexFromLocaleName@@YAHPB_W@Z 7e5547e8 f   libucrt:lcidtoname_downlevel.obj
 0001:0001390e       ??R<lambda_e96123212306c92459f955e8e4eac55d>@@QBEIPBD@Z 7e55490e f   libucrt:mbrtowc.obj
 0001:00013b91       ??$common_tcsncpy_s@D@@YAHQADIQBDI@Z 7e554b91 f   libucrt:strncpy_s.obj
 0001:00013c6c       ?to_abstract_control@@YA?AW4__acrt_fenv_abstract_control@@W4__acrt_fenv_machine_sse_control@@@Z 7e554c6c f   libucrt:_fenvutils.obj
 0001:00013d1c       ?to_abstract_control@@YA?AW4__acrt_fenv_abstract_control@@W4__acrt_fenv_machine_x87_control@@@Z 7e554d1c f   libucrt:_fenvutils.obj
 0001:000148c0       $$000000                   7e5558c0     libucrt:strpbrk.obj
 0001:000149a4       ?initialize_multibyte@@YAHXZ 7e5559a4 f   libucrt:multibyte_initializer.obj
 0001:000149e6       ??$?RV<lambda_9e9de3de5fa147e2223d7db92bc10aa6>@@AAV<lambda_38ce7e780aa69e748d6df282ebc68efe>@@V<lambda_8ca6da459f0f6780f1cff60fdc3d00e5>@@@?$__crt_seh_guarded_call@H@@QAEH$$QAV<lambda_9e9de3de5fa147e2223d7db92bc10aa6>@@AAV<lambda_38ce7e780aa69e748d6df282ebc68efe>@@$$QAV<lambda_8ca6da459f0f6780f1cff60fdc3d00e5>@@@Z 7e5559e6 f   libucrt:commit.obj
 0001:00014b05       ?write_double_translated_ansi_nolock@@YA?AUwrite_result@?A0x17268360@@HQBDIAAV__crt_cached_ptd_host@@@Z 7e555b05 f   libucrt:write.obj
 0001:00014ed7       ?write_double_translated_unicode_nolock@@YA?AUwrite_result@?A0x17268360@@QBDI@Z 7e555ed7 f   libucrt:write.obj
 0001:00014f3f       ?write_requires_double_translation_nolock@@YA_NHAAV__crt_cached_ptd_host@@@Z 7e555f3f f   libucrt:write.obj
 0001:00014fbd       ?write_text_ansi_nolock@@YA?AUwrite_result@?A0x17268360@@HQBDI@Z 7e555fbd f   libucrt:write.obj
 0001:00015098       ?write_text_utf16le_nolock@@YA?AUwrite_result@?A0x17268360@@HQBDI@Z 7e556098 f   libucrt:write.obj
 0001:00015181       ?write_text_utf8_nolock@@YA?AUwrite_result@?A0x17268360@@HQBDI@Z 7e556181 f   libucrt:write.obj
 0001:000155bb       ??$common_xtox@K_W@@YAHKQA_WII_N@Z 7e5565bb f   libucrt:xtoa.obj
 0001:0001566e       ??$common_xtox_s@K_W@@YAHKQA_WII_N@Z 7e55666e f   libucrt:xtoa.obj
 0001:00015720       $$000000                   7e556720     libucrt:_strnicm.obj
 0001:000159f0       $$000000                   7e5569f0     libucrt:log10_impl.obj
 0001:00015b00       $$000000                   7e556b00     libucrt:ceil_pentium4.obj
 0001:00015c53       ?_fclose_internal@@YAHQAU_iobuf@@AAV__crt_cached_ptd_host@@@Z 7e556c53 f   libucrt:fclose.obj
 0001:00015cea       ?_fclose_nolock_internal@@YAHQAU_iobuf@@AAV__crt_cached_ptd_host@@@Z 7e556cea f   libucrt:fclose.obj
 0001:00015da8       ??$common_lseek_nolock@_J@@YA_JH_JHAAV__crt_cached_ptd_host@@@Z 7e556da8 f   libucrt:lseek.obj
 0001:00015ed0       $$000000                   7e556ed0     libucrt:log10_pentium4.obj
 0001:00016160       $$000000                   7e557160     libucrt:87tran.obj
 0001:00016370       $$000000                   7e557370     libucrt:87disp.obj
 0001:000165d0       $$000000                   7e5575d0     libucrt:common.obj
 0001:00016760       $$000000                   7e557760     libucrt:genexcep.obj
 0001:00016a5c       ??$?RV<lambda_d422a76eb4c3bf3ad751449ab71a6ea4>@@AAV<lambda_c9ba49e555ba839a7b07aa3fbecb7617>@@V<lambda_9476263c8ee91a25d21c55370bdb50de>@@@?$__crt_seh_guarded_call@H@@QAEH$$QAV<lambda_d422a76eb4c3bf3ad751449ab71a6ea4>@@AAV<lambda_c9ba49e555ba839a7b07aa3fbecb7617>@@$$QAV<lambda_9476263c8ee91a25d21c55370bdb50de>@@@Z 7e557a5c f   libucrt:close.obj
 0001:00016c6b       ?__dcrt_lowio_initialize_console_output@@YAXXZ 7e557c6b f   libucrt:initcon.obj
 0001:000172e8       __unwindfunclet$??$?6_WU?$char_traits@_W@std@@@std@@YAAAV?$basic_ostream@_WU?$char_traits@_W@std@@@0@AAV10@PBD@Z$2 7e5582e8 f   w3l.obj
 0001:000172f0       __unwindfunclet$??$?6_WU?$char_traits@_W@std@@@std@@YAAAV?$basic_ostream@_WU?$char_traits@_W@std@@@0@AAV10@PBD@Z$3 7e5582f0 f   w3l.obj
 0001:000172fd       __ehhandler$??$?6_WU?$char_traits@_W@std@@@std@@YAAAV?$basic_ostream@_WU?$char_traits@_W@std@@@0@AAV10@PBD@Z 7e5582fd f   w3l.obj
 0001:00017309       __unwindfunclet$??$?6_WU?$char_traits@_W@std@@@std@@YAAAV?$basic_ostream@_WU?$char_traits@_W@std@@@0@AAV10@PB_W@Z$2 7e558309 f   w3l.obj
 0001:00017316       __ehhandler$??$?6_WU?$char_traits@_W@std@@@std@@YAAAV?$basic_ostream@_WU?$char_traits@_W@std@@@0@AAV10@PB_W@Z 7e558316 f   w3l.obj
 0001:00017322       __unwindfunclet$??$use_facet@V?$ctype@_W@std@@@std@@YAABV?$ctype@_W@0@ABVlocale@0@@Z$0 7e558322 f   w3l.obj
 0001:0001732a       __unwindfunclet$??$use_facet@V?$ctype@_W@std@@@std@@YAABV?$ctype@_W@0@ABVlocale@0@@Z$1 7e55832a f   w3l.obj
 0001:00017337       __ehhandler$??$use_facet@V?$ctype@_W@std@@@std@@YAABV?$ctype@_W@0@ABVlocale@0@@Z 7e558337 f   w3l.obj
 0001:00017343       __unwindfunclet$??0?$basic_iostream@_WU?$char_traits@_W@std@@@std@@QAE@PAV?$basic_streambuf@_WU?$char_traits@_W@std@@@1@@Z$0 7e558343 f   w3l.obj
 0001:0001735f       __unwindfunclet$??0?$basic_iostream@_WU?$char_traits@_W@std@@@std@@QAE@PAV?$basic_streambuf@_WU?$char_traits@_W@std@@@1@@Z$1 7e55835f f   w3l.obj
 0001:0001736f       __ehhandler$??0?$basic_iostream@_WU?$char_traits@_W@std@@@std@@QAE@PAV?$basic_streambuf@_WU?$char_traits@_W@std@@@1@@Z 7e55836f f   w3l.obj
 0001:0001737b       __unwindfunclet$??0?$basic_istream@_WU?$char_traits@_W@std@@@std@@QAE@PAV?$basic_streambuf@_WU?$char_traits@_W@std@@@1@_N@Z$0 7e55837b f   w3l.obj
 0001:0001739c       __ehhandler$??0?$basic_istream@_WU?$char_traits@_W@std@@@std@@QAE@PAV?$basic_streambuf@_WU?$char_traits@_W@std@@@1@_N@Z 7e55839c f   w3l.obj
 0001:000173a8       __ehhandler$??0?$basic_streambuf@_WU?$char_traits@_W@std@@@std@@IAE@XZ 7e5583a8 f   w3l.obj
 0001:000173a8       __ehhandler$?_Init@ios_base@std@@IAEXXZ 7e5583a8 f   w3l.obj
 0001:000173b4       __unwindfunclet$??0?$basic_stringstream@_WU?$char_traits@_W@std@@V?$allocator@_W@2@@std@@QAE@XZ$0 7e5583b4 f   w3l.obj
 0001:000173d0       __unwindfunclet$??0?$basic_stringstream@_WU?$char_traits@_W@std@@V?$allocator@_W@2@@std@@QAE@XZ$1 7e5583d0 f   w3l.obj
 0001:000173e0       __ehhandler$??0?$basic_stringstream@_WU?$char_traits@_W@std@@V?$allocator@_W@2@@std@@QAE@XZ 7e5583e0 f   w3l.obj
 0001:000173ec       __unwindfunclet$??0_Locinfo@std@@QAE@PBD@Z$0 7e5583ec f   w3l.obj
 0001:000173f4       __unwindfunclet$??0_Locinfo@std@@QAE@PBD@Z$1 7e5583f4 f   w3l.obj
 0001:000173ff       __unwindfunclet$??0_Locinfo@std@@QAE@PBD@Z$2 7e5583ff f   w3l.obj
 0001:0001740a       __unwindfunclet$??0_Locinfo@std@@QAE@PBD@Z$3 7e55840a f   w3l.obj
 0001:00017415       __unwindfunclet$??0_Locinfo@std@@QAE@PBD@Z$4 7e558415 f   w3l.obj
 0001:00017420       __unwindfunclet$??0_Locinfo@std@@QAE@PBD@Z$5 7e558420 f   w3l.obj
 0001:0001742b       __unwindfunclet$??0_Locinfo@std@@QAE@PBD@Z$6 7e55842b f   w3l.obj
 0001:0001743b       __ehhandler$??0_Locinfo@std@@QAE@PBD@Z 7e55843b f   w3l.obj
 0001:00017447       __unwindfunclet$??0sentry@?$basic_ostream@_WU?$char_traits@_W@std@@@std@@QAE@AAV12@@Z$0 7e558447 f   w3l.obj
 0001:00017454       __ehhandler$??0sentry@?$basic_ostream@_WU?$char_traits@_W@std@@@std@@QAE@AAV12@@Z 7e558454 f   w3l.obj
 0001:00017460       __unwindfunclet$??0system_error@std@@QAE@Verror_code@1@PBD@Z$0 7e558460 f   w3l.obj
 0001:0001746d       __ehhandler$??0system_error@std@@QAE@Verror_code@1@PBD@Z 7e55846d f   w3l.obj
 0001:00017479       __ehhandler$??1?$basic_ios@_WU?$char_traits@_W@std@@@std@@UAE@XZ 7e558479 f   w3l.obj
 0001:00017479       __ehhandler$??_D?$basic_iostream@_WU?$char_traits@_W@std@@@std@@QAEXXZ 7e558479 f   w3l.obj
 0001:00017479       __ehhandler$??_D?$basic_istream@_WU?$char_traits@_W@std@@@std@@QAEXXZ 7e558479 f   w3l.obj
 0001:00017479       __ehhandler$??_D?$basic_ostream@_WU?$char_traits@_W@std@@@std@@QAEXXZ 7e558479 f   w3l.obj
 0001:00017479       __ehhandler$??_D?$basic_stringstream@_WU?$char_traits@_W@std@@V?$allocator@_W@2@@std@@QAEXXZ 7e558479 f   w3l.obj
 0001:00017479       __ehhandler$??_G?$basic_ios@_WU?$char_traits@_W@std@@@std@@UAEPAXI@Z 7e558479 f   w3l.obj
 0001:00017479       __ehhandler$??_Gios_base@std@@UAEPAXI@Z 7e558479 f   w3l.obj
 0001:00017485       __ehhandler$??1_Locinfo@std@@QAE@XZ 7e558485 f   w3l.obj
 0001:00017485       __ehhandler$??1_Sentry_base@?$basic_ostream@_WU?$char_traits@_W@std@@@std@@QAE@XZ 7e558485 f   w3l.obj
 0001:00017491       __unwindfunclet$?InitLoader@@YAHPA_W0000@Z$0 7e558491 f   w3l.obj
 0001:000174a1       __ehhandler$?InitLoader@@YAHPA_W0000@Z 7e5584a1 f   w3l.obj
 0001:000174ad       __unwindfunclet$?_Getcat@?$ctype@_W@std@@SAIPAPBVfacet@locale@2@PBV42@@Z$0 7e5584ad f   w3l.obj
 0001:000174bf       __ehhandler$?_Getcat@?$ctype@_W@std@@SAIPAPBVfacet@locale@2@PBV42@@Z 7e5584bf f   w3l.obj
 0001:000174cb       __unwindfunclet$?_Makestr@_System_error@std@@CA?AV?$basic_string@DU?$char_traits@D@std@@V?$allocator@D@2@@2@Verror_code@2@V32@@Z$0 7e5584cb f   w3l.obj
 0001:000174d3       __unwindfunclet$?_Makestr@_System_error@std@@CA?AV?$basic_string@DU?$char_traits@D@std@@V?$allocator@D@2@@2@Verror_code@2@V32@@Z$1 7e5584d3 f   w3l.obj
 0001:000174e0       __ehhandler$?_Makestr@_System_error@std@@CA?AV?$basic_string@DU?$char_traits@D@std@@V?$allocator@D@2@@2@Verror_code@2@V32@@Z 7e5584e0 f   w3l.obj
 0001:000174ec       __ehhandler$?_Osfx@?$basic_ostream@_WU?$char_traits@_W@std@@@std@@QAEXXZ 7e5584ec f   w3l.obj
 0001:000174f8       __unwindfunclet$?flush@?$basic_ostream@_WU?$char_traits@_W@std@@@std@@QAEAAV12@XZ$2 7e5584f8 f   w3l.obj
 0001:00017505       __ehhandler$?flush@?$basic_ostream@_WU?$char_traits@_W@std@@@std@@QAEAAV12@XZ 7e558505 f   w3l.obj
 0001:00017511       __unwindfunclet$?str@?$basic_stringbuf@_WU?$char_traits@_W@std@@V?$allocator@_W@2@@std@@QBE?AV?$basic_string@_WU?$char_traits@_W@std@@V?$allocator@_W@2@@2@XZ$0 7e558511 f   w3l.obj
 0001:0001752f       __ehhandler$?str@?$basic_stringbuf@_WU?$char_traits@_W@std@@V?$allocator@_W@2@@std@@QBE?AV?$basic_string@_WU?$char_traits@_W@std@@V?$allocator@_W@2@@2@XZ 7e55852f f   w3l.obj
 0001:0001753b       __unwindfunclet$?widen@?$basic_ios@_WU?$char_traits@_W@std@@@std@@QBE_WD@Z$0 7e55853b f   w3l.obj
 0001:00017548       __ehhandler$?widen@?$basic_ios@_WU?$char_traits@_W@std@@@std@@QBE_WD@Z 7e558548 f   w3l.obj
 0001:00017554       __unwindfunclet$?_Init@locale@std@@CAPAV_Locimp@12@_N@Z$0 7e558554 f   libcpmt:locale0.obj
 0001:00017561       __ehhandler$?_Init@locale@std@@CAPAV_Locimp@12@_N@Z 7e558561 f   libcpmt:locale0.obj
 0001:0001757e       __ehhandler$?_Tidy@ios_base@std@@AAEXXZ 7e55857e f   libcpmt:ios.obj
 0001:0001757e       __ehhandler$?try_cor_exit_process@@YAXI@Z 7e55857e f   libucrt:exit.obj
 0001:0001759b       __ehhandler$??1_Init_atexit@@QAE@XZ 7e55859b f   libcpmt:iosptrs.obj
 0001:000175b8       __ehhandler$?CallUnexpected@@YAXPBU_s_ESTypeList@@@Z 7e5585b8 f   libvcruntime:frame.obj
 0001:000175d5       __ehhandler$?common_exit@@YAXHW4_crt_exit_cleanup_mode@@W4_crt_exit_return_mode@@@Z 7e5585d5 f   libucrt:exit.obj
 0001:000175f2       __ehhandler$___dcrt_uninitialize_environments_nolock 7e5585f2 f   libucrt:environment_initialization.obj
 0001:0001760f       __ehhandler$__execute_onexit_table 7e55860f f   libucrt:onexit.obj
 0001:0001762c       __ehhandler$?_mbstowcs_l_helper@@YAIPA_WPBDIAAV__crt_cached_ptd_host@@@Z 7e55862c f   libucrt:mbstowcs.obj
 0001:00017649       __ehhandler$?write_double_translated_ansi_nolock@@YA?AUwrite_result@?A0x17268360@@HQBDIAAV__crt_cached_ptd_host@@@Z 7e558649 f   libucrt:write.obj
 0001:00017673       ??__Finitlocks@std@@YAXXZ  7e558673 f   libcpmt:xlock.obj
 0001:0001767d       ??__F_Fac_tidy_reg@std@@YAXXZ 7e55867d f   libcpmt:locale0.obj
 0001:00017687       ??__Fclassic_locale@std@@YAXXZ 7e558687 f   libcpmt:locale0.obj
 0001:00017691       ??__Finit_atexit@@YAXXZ    7e558691 f   libcpmt:iosptrs.obj
 0001:0001769b       ??__Finitlocks@std@@YAXXZ  7e55869b f   libcpmt:iosptrs.obj
 0002:0000015c       ?initlocks$initializer$@std@@3P6AXXZA 7e55915c     libcpmt:xlock.obj
 0002:00000160       ?initlocks$initializer$@std@@3P6AXXZA 7e559160     libcpmt:iosptrs.obj
 0002:00000164       ?init_atexit$initializer$@@3P6AXXZA 7e559164     libcpmt:iosptrs.obj
 0002:00000168       ?_Fac_tidy_reg$initializer$@std@@3P6AXXZA 7e559168     libcpmt:locale0.obj
 0002:0000016c       ?classic_locale$initializer$@std@@3P6AXXZA 7e55916c     libcpmt:locale0.obj
 0002:000001c0       ?_Fake_alloc@std@@3U_Fake_allocator@1@B 7e5591c0     w3l.obj
 0002:000005f8       ?_Win_errtab@?A0xdad2e229@@3QBU_Win_errtab_t@1@B 7e5595f8     libcpmt:syserror.obj
 0002:00000898       ?_Sys_errtab@?A0xdad2e229@@3QBU_Sys_errtab_t@1@B 7e559898     libcpmt:syserror.obj
 0002:00001170       ?_Whitespace_bitmap@?A0xfa98056f@@3U_Whitespace_bitmap_t@1@B 7e55a170     libcpmt:syserror_import_lib.obj
 0002:0000127c       _digits                    7e55a27c     libcpmt:xstoul.obj
 0002:000012a4       _ndigs                     7e55a2a4     libcpmt:xstoul.obj
 0002:000012cc       _digits                    7e55a2cc     libcpmt:xstoull.obj
 0002:000012f4       _ndigs                     7e55a2f4     libcpmt:xstoull.obj
 0002:00001328       _GS_ExceptionPointers      7e55a328     LIBCMT:gs_report.obj
 0002:00001350       ?tokenTable@@3QBUStringLiteral@@B 7e55a350     libvcruntime:undname.obj
 0002:000013d8       ?nameTable@@3QBUStringLiteral@@B 7e55a3d8     libvcruntime:undname.obj
 0002:00001670       ?rttiTable@@3QBUStringLiteral@@B 7e55a670     libvcruntime:undname.obj
 0002:00001698       ?IndirectionName@@3QBUStringLiteral@@B 7e55a698     libvcruntime:undname.obj
 0002:000016c8       ?PrefixName@@3QBUStringLiteral@@B 7e55a6c8     libvcruntime:undname.obj
 0002:00001cfc       ?module_names@?A0x14174aea@@3QBQB_WB 7e55acfc     libvcruntime:winapi_downlevel.obj
 0002:00001da4       ?candidate_modules@?1??try_get_FlsAlloc@@YAP6GKP6GXPAX@Z@ZXZ@4QBW4module_id@?A0x14174aea@@B 7e55ada4     libvcruntime:winapi_downlevel.obj
 0002:00001db8       ?candidate_modules@?1??try_get_FlsFree@@YAP6GHK@ZXZ@4QBW4module_id@?A0x14174aea@@B 7e55adb8     libvcruntime:winapi_downlevel.obj
 0002:00001dc8       ?candidate_modules@?1??try_get_FlsGetValue@@YAP6GPAXK@ZXZ@4QBW4module_id@?A0x14174aea@@B 7e55adc8     libvcruntime:winapi_downlevel.obj
 0002:00001ddc       ?candidate_modules@?1??try_get_FlsSetValue@@YAP6GHKPAX@ZXZ@4QBW4module_id@?A0x14174aea@@B 7e55addc     libvcruntime:winapi_downlevel.obj
 0002:00001df0       ?candidate_modules@?1??try_get_InitializeCriticalSectionEx@@YAP6GHPAU_RTL_CRITICAL_SECTION@@KK@ZXZ@4QBW4module_id@?A0x14174aea@@B 7e55adf0     libvcruntime:winapi_downlevel.obj
 0002:00002620       ?errtable@@3QBUerrentry@?A0x31fdb9ec@@B 7e55b620     libucrt:errno.obj
 0002:00002858       ___acrt_initializers       7e55b858     libucrt:initialization.obj
 0002:000028d8       __first_127char            7e55b8d8     libucrt:wsetlocale.obj
 0002:00002f08       ?module_names@?A0x391cf84c@@3QBQB_WB 7e55bf08     libucrt:winapi_thunks.obj
 0002:000033bc       ?candidate_modules@?1??try_get_AreFileApisANSI@@YAP6GHXZXZ@4QBW4module_id@?A0x391cf84c@@B 7e55c3bc     libucrt:winapi_thunks.obj
 0002:000033d0       ?candidate_modules@?1??try_get_CompareStringEx@@YAP6GHPB_WK0H0HPAU_nlsversioninfo@@PAXJ@ZXZ@4QBW4module_id@?A0x391cf84c@@B 7e55c3d0     libucrt:winapi_thunks.obj
 0002:000033e8       ?candidate_modules@?1??try_get_EnumSystemLocalesEx@@YAP6GHP6GHPA_WKJ@ZKJPAX@ZXZ@4QBW4module_id@?A0x391cf84c@@B 7e55c3e8     libucrt:winapi_thunks.obj
 0002:00003404       ?candidate_modules@?1??try_get_GetDateFormatEx@@YAP6GHPB_WKPBU_SYSTEMTIME@@0PA_WH0@ZXZ@4QBW4module_id@?A0x391cf84c@@B 7e55c404     libucrt:winapi_thunks.obj
 0002:0000341c       ?candidate_modules@?1??try_get_GetLocaleInfoEx@@YAP6GHPB_WKPA_WH@ZXZ@4QBW4module_id@?A0x391cf84c@@B 7e55c41c     libucrt:winapi_thunks.obj
 0002:00003434       ?candidate_modules@?1??try_get_GetTimeFormatEx@@YAP6GHPB_WKPBU_SYSTEMTIME@@0PA_WH@ZXZ@4QBW4module_id@?A0x391cf84c@@B 7e55c434     libucrt:winapi_thunks.obj
 0002:0000344c       ?candidate_modules@?1??try_get_GetUserDefaultLocaleName@@YAP6GHPA_WH@ZXZ@4QBW4module_id@?A0x391cf84c@@B 7e55c44c     libucrt:winapi_thunks.obj
 0002:00003470       ?candidate_modules@?1??try_get_InitializeCriticalSectionEx@@YAP6GHPAU_RTL_CRITICAL_SECTION@@KK@ZXZ@4QBW4module_id@?A0x391cf84c@@B 7e55c470     libucrt:winapi_thunks.obj
 0002:00003478       ?candidate_modules@?1??try_get_IsValidLocaleName@@YAP6GHPB_W@ZXZ@4QBW4module_id@?A0x391cf84c@@B 7e55c478     libucrt:winapi_thunks.obj
 0002:00003494       ?candidate_modules@?1??try_get_LCMapStringEx@@YAP6GHPB_WK0HPA_WHPAU_nlsversioninfo@@PAXJ@ZXZ@4QBW4module_id@?A0x391cf84c@@B 7e55c494     libucrt:winapi_thunks.obj
 0002:000034ac       ?candidate_modules@?1??try_get_LCIDToLocaleName@@YAP6GHKPA_WHK@ZXZ@4QBW4module_id@?A0x391cf84c@@B 7e55c4ac     libucrt:winapi_thunks.obj
 0002:000034c8       ?candidate_modules@?1??try_get_LocaleNameToLCID@@YAP6GKPB_WK@ZXZ@4QBW4module_id@?A0x391cf84c@@B 7e55c4c8     libucrt:winapi_thunks.obj
 0002:000034e4       ?candidate_modules@?1??try_get_AppPolicyGetProcessTerminationMethod@@YAP6GJPAXPAW4AppPolicyProcessTerminationMethod@@@ZXZ@4QBW4module_id@?A0x391cf84c@@B 7e55c4e4     libucrt:winapi_thunks.obj
 0002:00003510       ?candidate_modules@?1??try_get_FlsAlloc@@YAP6GKP6GXPAX@Z@ZXZ@4QBW4module_id@?A0x391cf84c@@B 7e55c510     libucrt:winapi_thunks.obj
 0002:00003518       ?candidate_modules@?1??try_get_FlsFree@@YAP6GHK@ZXZ@4QBW4module_id@?A0x391cf84c@@B 7e55c518     libucrt:winapi_thunks.obj
 0002:00003520       ?candidate_modules@?1??try_get_FlsGetValue@@YAP6GPAXK@ZXZ@4QBW4module_id@?A0x391cf84c@@B 7e55c520     libucrt:winapi_thunks.obj
 0002:00003528       ?candidate_modules@?1??try_get_FlsSetValue@@YAP6GHKPAX@ZXZ@4QBW4module_id@?A0x391cf84c@@B 7e55c528     libucrt:winapi_thunks.obj
 0002:00003530       ?_names@?1??_get_fname@@9@4QBU<unnamed-type-_names>@?1??1@YAPADI@Z@B 7e55c530     libucrt:fpexcept.obj
 0002:000036f8       _over                      7e55c6f8     libucrt:fpctrl.obj
 0002:00003704       _under                     7e55c704     libucrt:fpctrl.obj
 0002:00003710       ?_mb_locale_names@@3QBQB_WB 7e55c710     libucrt:mbctype.obj
 0002:00004520       ?LcidToLocaleNameTable@?A0x881e4c05@@3QBULcidToLocaleName@1@B 7e55d520     libucrt:lcidtoname_downlevel.obj
 0002:00005640       ?LocaleNameToIndexTable@?A0x881e4c05@@3QBULocaleNameIndex@1@B 7e55e640     libucrt:lcidtoname_downlevel.obj
 0002:00006590       LOG_name                   7e55f590     libucrt:log10_impl.obj
 0002:000065a0       _One                       7e55f5a0     libucrt:ceil_pentium4.obj
 0002:000065b0       _Bns                       7e55f5b0     libucrt:ceil_pentium4.obj
 0002:000065c0       _Zero                      7e55f5c0     libucrt:ceil_pentium4.obj
 0002:000065d0       _S                         7e55f5d0     libucrt:ceil_pentium4.obj
 0002:000065e0       _NegZero                   7e55f5e0     libucrt:ceil_pentium4.obj
 0002:000065f0       emask                      7e55f5f0     libucrt:log10_pentium4.obj
 0002:00006600       CC                         7e55f600     libucrt:log10_pentium4.obj
 0002:00006610       Magic                      7e55f610     libucrt:log10_pentium4.obj
 0002:00006620       hi_mask                    7e55f620     libucrt:log10_pentium4.obj
 0002:00006630       LOG10_2                    7e55f630     libucrt:log10_pentium4.obj
 0002:00006640       place_L                    7e55f640     libucrt:log10_pentium4.obj
 0002:00006660       One                        7e55f660     libucrt:log10_pentium4.obj
 0002:00006670       Zero                       7e55f670     libucrt:log10_pentium4.obj
 0002:00006680       Two52                      7e55f680     libucrt:log10_pentium4.obj
 0002:00006690       Infs                       7e55f690     libucrt:log10_pentium4.obj
 0002:000066a0       NaN                        7e55f6a0     libucrt:log10_pentium4.obj
 0002:000066b0       coeff                      7e55f6b0     libucrt:log10_pentium4.obj
 0002:0000670e       _log2max                   7e55f70e     libucrt:87tran.obj
 0002:00006718       _smallarg                  7e55f718     libucrt:87tran.obj
 0002:00006722       _half                      7e55f722     libucrt:87tran.obj
 0002:0000676e       One                        7e55f76e     libucrt:87disp.obj
 0002:00006776       Three                      7e55f776     libucrt:87disp.obj
 0002:0000677e       XAMtoTagTab                7e55f77e     libucrt:87disp.obj
 0002:00006790       One                        7e55f790     libucrt:common.obj
 0002:000067a4       DblMax                     7e55f7a4     libucrt:common.obj
 0002:000067ac       DblMin                     7e55f7ac     libucrt:common.obj
 0002:000067b4       IeeeAdjO                   7e55f7b4     libucrt:common.obj
 0002:000067bc       IeeeAdjU                   7e55f7bc     libucrt:common.obj
 0002:000067c4       _infinity                  7e55f7c4     libucrt:common.obj
 0002:000067cc       _zero                      7e55f7cc     libucrt:common.obj
 0002:00007020       two32                      7e560020     LIBCMT:ftol2.obj
 0002:00007024       two63                      7e560024     LIBCMT:ftol2.obj
 0002:00007028       _NaN                       7e560028     LIBCMT:ftol2.obj
 0002:00007f20       __unwindtable$?_Makestr@_System_error@std@@CA?AV?$basic_string@DU?$char_traits@D@std@@V?$allocator@D@2@@2@Verror_code@2@V32@@Z 7e560f20     w3l.obj
 0002:00007f30       __ehfuncinfo$?_Makestr@_System_error@std@@CA?AV?$basic_string@DU?$char_traits@D@std@@V?$allocator@D@2@@2@Verror_code@2@V32@@Z 7e560f30     w3l.obj
 0002:00007f54       __unwindtable$??0system_error@std@@QAE@Verror_code@1@PBD@Z 7e560f54     w3l.obj
 0002:00007f5c       __ehfuncinfo$??0system_error@std@@QAE@Verror_code@1@PBD@Z 7e560f5c     w3l.obj
 0002:00007f80       __ehfuncinfo$??0_Locinfo@std@@QAE@PBD@Z 7e560f80     w3l.obj
 0002:00007fa4       __unwindtable$??0_Locinfo@std@@QAE@PBD@Z 7e560fa4     w3l.obj
 0002:00007fdc       __ehfuncinfo$??1_Locinfo@std@@QAE@XZ 7e560fdc     w3l.obj
 0002:00007fdc       __ehfuncinfo$??1_Sentry_base@?$basic_ostream@_WU?$char_traits@_W@std@@@std@@QAE@XZ 7e560fdc     w3l.obj
 0002:00007fdc       __ehfuncinfo$?_Tidy@ios_base@std@@AAEXXZ 7e560fdc     libcpmt:ios.obj
 0002:00007fdc       __ehfuncinfo$??1_Init_atexit@@QAE@XZ 7e560fdc     libcpmt:iosptrs.obj
 0002:00007fdc       __ehfuncinfo$?_mbstowcs_l_helper@@YAIPA_WPBDIAAV__crt_cached_ptd_host@@@Z 7e560fdc     libucrt:mbstowcs.obj
 0002:00007fdc       __ehfuncinfo$?write_double_translated_ansi_nolock@@YA?AUwrite_result@?A0x17268360@@HQBDIAAV__crt_cached_ptd_host@@@Z 7e560fdc     libucrt:write.obj
 0002:00007fdc       __ehfuncinfo$?try_cor_exit_process@@YAXI@Z 7e560fdc     libucrt:exit.obj
 0002:00008000       __unwindtable$?_Getcat@?$ctype@_W@std@@SAIPAPBVfacet@locale@2@PBV42@@Z 7e561000     w3l.obj
 0002:00008008       __ehfuncinfo$?_Getcat@?$ctype@_W@std@@SAIPAPBVfacet@locale@2@PBV42@@Z 7e561008     w3l.obj
 0002:0000802c       __unwindtable$??0?$basic_streambuf@_WU?$char_traits@_W@std@@@std@@IAE@XZ 7e56102c     w3l.obj
 0002:0000802c       __unwindtable$?_Init@ios_base@std@@IAEXXZ 7e56102c     w3l.obj
 0002:0000802c       __unwindtable$__execute_onexit_table 7e56102c     libucrt:onexit.obj
 0002:00008034       __ehfuncinfo$??0?$basic_streambuf@_WU?$char_traits@_W@std@@@std@@IAE@XZ 7e561034     w3l.obj
 0002:00008034       __ehfuncinfo$?_Init@ios_base@std@@IAEXXZ 7e561034     w3l.obj
 0002:00008034       __ehfuncinfo$__execute_onexit_table 7e561034     libucrt:onexit.obj
 0002:00008058       __unwindtable$??1?$basic_ios@_WU?$char_traits@_W@std@@@std@@UAE@XZ 7e561058     w3l.obj
 0002:00008058       __unwindtable$??_D?$basic_iostream@_WU?$char_traits@_W@std@@@std@@QAEXXZ 7e561058     w3l.obj
 0002:00008058       __unwindtable$??_D?$basic_istream@_WU?$char_traits@_W@std@@@std@@QAEXXZ 7e561058     w3l.obj
 0002:00008058       __unwindtable$??_D?$basic_ostream@_WU?$char_traits@_W@std@@@std@@QAEXXZ 7e561058     w3l.obj
 0002:00008058       __unwindtable$??_D?$basic_stringstream@_WU?$char_traits@_W@std@@V?$allocator@_W@2@@std@@QAEXXZ 7e561058     w3l.obj
 0002:00008058       __unwindtable$??_G?$basic_ios@_WU?$char_traits@_W@std@@@std@@UAEPAXI@Z 7e561058     w3l.obj
 0002:00008058       __unwindtable$??_Gios_base@std@@UAEPAXI@Z 7e561058     w3l.obj
 0002:00008058       __unwindtable$?common_exit@@YAXHW4_crt_exit_cleanup_mode@@W4_crt_exit_return_mode@@@Z 7e561058     libucrt:exit.obj
 0002:00008060       __ehfuncinfo$??1?$basic_ios@_WU?$char_traits@_W@std@@@std@@UAE@XZ 7e561060     w3l.obj
 0002:00008060       __ehfuncinfo$??_D?$basic_iostream@_WU?$char_traits@_W@std@@@std@@QAEXXZ 7e561060     w3l.obj
 0002:00008060       __ehfuncinfo$??_D?$basic_istream@_WU?$char_traits@_W@std@@@std@@QAEXXZ 7e561060     w3l.obj
 0002:00008060       __ehfuncinfo$??_D?$basic_ostream@_WU?$char_traits@_W@std@@@std@@QAEXXZ 7e561060     w3l.obj
 0002:00008060       __ehfuncinfo$??_D?$basic_stringstream@_WU?$char_traits@_W@std@@V?$allocator@_W@2@@std@@QAEXXZ 7e561060     w3l.obj
 0002:00008060       __ehfuncinfo$??_G?$basic_ios@_WU?$char_traits@_W@std@@@std@@UAEPAXI@Z 7e561060     w3l.obj
 0002:00008060       __ehfuncinfo$??_Gios_base@std@@UAEPAXI@Z 7e561060     w3l.obj
 0002:00008060       __ehfuncinfo$?common_exit@@YAXHW4_crt_exit_cleanup_mode@@W4_crt_exit_return_mode@@@Z 7e561060     libucrt:exit.obj
 0002:00008084       __unwindtable$?InitLoader@@YAHPA_W0000@Z 7e561084     w3l.obj
 0002:0000808c       __ehfuncinfo$?InitLoader@@YAHPA_W0000@Z 7e56108c     w3l.obj
 0002:000080b0       __unwindtable$?widen@?$basic_ios@_WU?$char_traits@_W@std@@@std@@QBE_WD@Z 7e5610b0     w3l.obj
 0002:000080b8       __ehfuncinfo$?widen@?$basic_ios@_WU?$char_traits@_W@std@@@std@@QBE_WD@Z 7e5610b8     w3l.obj
 0002:000080dc       __unwindtable$??0?$basic_istream@_WU?$char_traits@_W@std@@@std@@QAE@PAV?$basic_streambuf@_WU?$char_traits@_W@std@@@1@_N@Z 7e5610dc     w3l.obj
 0002:000080e4       __ehfuncinfo$??0?$basic_istream@_WU?$char_traits@_W@std@@@std@@QAE@PAV?$basic_streambuf@_WU?$char_traits@_W@std@@@1@_N@Z 7e5610e4     w3l.obj
 0002:00008108       __catchsym$?_Osfx@?$basic_ostream@_WU?$char_traits@_W@std@@@std@@QAEXXZ$2 7e561108     w3l.obj
 0002:00008118       __unwindtable$?_Osfx@?$basic_ostream@_WU?$char_traits@_W@std@@@std@@QAEXXZ 7e561118     w3l.obj
 0002:00008128       __tryblocktable$?_Osfx@?$basic_ostream@_WU?$char_traits@_W@std@@@std@@QAEXXZ 7e561128     w3l.obj
 0002:0000813c       __ehfuncinfo$?_Osfx@?$basic_ostream@_WU?$char_traits@_W@std@@@std@@QAEXXZ 7e56113c     w3l.obj
 0002:00008160       __catchsym$?flush@?$basic_ostream@_WU?$char_traits@_W@std@@@std@@QAEAAV12@XZ$3 7e561160     w3l.obj
 0002:00008170       __tryblocktable$?flush@?$basic_ostream@_WU?$char_traits@_W@std@@@std@@QAEAAV12@XZ 7e561170     w3l.obj
 0002:00008184       __unwindtable$?flush@?$basic_ostream@_WU?$char_traits@_W@std@@@std@@QAEAAV12@XZ 7e561184     w3l.obj
 0002:0000819c       __ehfuncinfo$?flush@?$basic_ostream@_WU?$char_traits@_W@std@@@std@@QAEAAV12@XZ 7e56119c     w3l.obj
 0002:000081c0       __unwindtable$??0?$basic_iostream@_WU?$char_traits@_W@std@@@std@@QAE@PAV?$basic_streambuf@_WU?$char_traits@_W@std@@@1@@Z 7e5611c0     w3l.obj
 0002:000081d8       __ehfuncinfo$??0?$basic_iostream@_WU?$char_traits@_W@std@@@std@@QAE@PAV?$basic_streambuf@_WU?$char_traits@_W@std@@@1@@Z 7e5611d8     w3l.obj
 0002:000081fc       __unwindtable$??0?$basic_stringstream@_WU?$char_traits@_W@std@@V?$allocator@_W@2@@std@@QAE@XZ 7e5611fc     w3l.obj
 0002:0000820c       __ehfuncinfo$??0?$basic_stringstream@_WU?$char_traits@_W@std@@V?$allocator@_W@2@@std@@QAE@XZ 7e56120c     w3l.obj
 0002:00008230       __unwindtable$?str@?$basic_stringbuf@_WU?$char_traits@_W@std@@V?$allocator@_W@2@@std@@QBE?AV?$basic_string@_WU?$char_traits@_W@std@@V?$allocator@_W@2@@2@XZ 7e561230     w3l.obj
 0002:00008238       __ehfuncinfo$?str@?$basic_stringbuf@_WU?$char_traits@_W@std@@V?$allocator@_W@2@@std@@QBE?AV?$basic_string@_WU?$char_traits@_W@std@@V?$allocator@_W@2@@2@XZ 7e561238     w3l.obj
 0002:0000825c       __catchsym$??$?6_WU?$char_traits@_W@std@@@std@@YAAAV?$basic_ostream@_WU?$char_traits@_W@std@@@0@AAV10@PB_W@Z$3 7e56125c     w3l.obj
 0002:0000826c       __tryblocktable$??$?6_WU?$char_traits@_W@std@@@std@@YAAAV?$basic_ostream@_WU?$char_traits@_W@std@@@0@AAV10@PB_W@Z 7e56126c     w3l.obj
 0002:00008280       __unwindtable$??$?6_WU?$char_traits@_W@std@@@std@@YAAAV?$basic_ostream@_WU?$char_traits@_W@std@@@0@AAV10@PB_W@Z 7e561280     w3l.obj
 0002:00008298       __ehfuncinfo$??$?6_WU?$char_traits@_W@std@@@std@@YAAAV?$basic_ostream@_WU?$char_traits@_W@std@@@0@AAV10@PB_W@Z 7e561298     w3l.obj
 0002:000082bc       __catchsym$??$?6_WU?$char_traits@_W@std@@@std@@YAAAV?$basic_ostream@_WU?$char_traits@_W@std@@@0@AAV10@PBD@Z$5 7e5612bc     w3l.obj
 0002:000082cc       __tryblocktable$??$?6_WU?$char_traits@_W@std@@@std@@YAAAV?$basic_ostream@_WU?$char_traits@_W@std@@@0@AAV10@PBD@Z 7e5612cc     w3l.obj
 0002:000082e0       __unwindtable$??$?6_WU?$char_traits@_W@std@@@std@@YAAAV?$basic_ostream@_WU?$char_traits@_W@std@@@0@AAV10@PBD@Z 7e5612e0     w3l.obj
 0002:00008300       __ehfuncinfo$??$?6_WU?$char_traits@_W@std@@@std@@YAAAV?$basic_ostream@_WU?$char_traits@_W@std@@@0@AAV10@PBD@Z 7e561300     w3l.obj
 0002:00008324       __unwindtable$??$use_facet@V?$ctype@_W@std@@@std@@YAABV?$ctype@_W@0@ABVlocale@0@@Z 7e561324     w3l.obj
 0002:00008334       __ehfuncinfo$??$use_facet@V?$ctype@_W@std@@@std@@YAABV?$ctype@_W@0@ABVlocale@0@@Z 7e561334     w3l.obj
 0002:00008358       __unwindtable$??0sentry@?$basic_ostream@_WU?$char_traits@_W@std@@@std@@QAE@AAV12@@Z 7e561358     w3l.obj
 0002:00008360       __ehfuncinfo$??0sentry@?$basic_ostream@_WU?$char_traits@_W@std@@@std@@QAE@AAV12@@Z 7e561360     w3l.obj
 0002:00008558       __unwindtable$?_Init@locale@std@@CAPAV_Locimp@12@_N@Z 7e561558     libcpmt:locale0.obj
 0002:00008560       __ehfuncinfo$?_Init@locale@std@@CAPAV_Locimp@12@_N@Z 7e561560     libcpmt:locale0.obj
 0002:00008588       __sehtable$?dllmain_crt_process_attach@@YAHQAUHINSTANCE__@@QAX@Z 7e561588     LIBCMT:dll_dllmain.obj
 0002:000085a8       __sehtable$?dllmain_crt_process_detach@@YAH_N@Z 7e5615a8     LIBCMT:dll_dllmain.obj
 0002:000085d0       __sehtable$?dllmain_dispatch@@YAHQAUHINSTANCE__@@KQAX@Z 7e5615d0     LIBCMT:dll_dllmain.obj
 0002:000085f0       __sehtable$___scrt_is_nonwritable_in_current_image 7e5615f0     LIBCMT:utility.obj
 0002:00008610       __sehtable$___DestructExceptionObject 7e561610     libvcruntime:ehhelpers.obj
 0002:00008630       __sehtable$?FrameUnwindToState@__FrameHandler3@@SAXPAUEHRegistrationNode@@PAXPBU_s_FuncInfo@@H@Z 7e561630     libvcruntime:frame.obj
 0002:00008658       __sehtable$?CallCatchBlock@@YAPAXPAUEHExceptionRecord@@PAUEHRegistrationNode@@PAU_CONTEXT@@PBU_s_FuncInfo@@PAXHK@Z 7e561658     libvcruntime:frame.obj
 0002:00008680       __catchsym$?CallUnexpected@@YAXPBU_s_ESTypeList@@@Z$2 7e561680     libvcruntime:frame.obj
 0002:00008690       __unwindtable$?CallUnexpected@@YAXPBU_s_ESTypeList@@@Z 7e561690     libvcruntime:frame.obj
 0002:000086a0       __tryblocktable$?CallUnexpected@@YAXPBU_s_ESTypeList@@@Z 7e5616a0     libvcruntime:frame.obj
 0002:000086b4       __ehfuncinfo$?CallUnexpected@@YAXPBU_s_ESTypeList@@@Z 7e5616b4     libvcruntime:frame.obj
 0002:000086d8       __sehtable$??$BuildCatchObjectHelperInternal@V__FrameHandler3@@@@YAHPAUEHExceptionRecord@@PAXPBU_s_HandlerType@@PBU_s_CatchableType@@@Z 7e5616d8     libvcruntime:frame.obj
 0002:000086f8       __sehtable$??$BuildCatchObjectInternal@V__FrameHandler3@@@@YAXPAUEHExceptionRecord@@PAXPBU_s_HandlerType@@PBU_s_CatchableType@@@Z 7e5616f8     libvcruntime:frame.obj
 0002:00008750       __sehtable$??$common_getenv@_W@@YAPA_WQB_W@Z 7e561750     libucrt:getenv.obj
 0002:00008770       __sehtable$??$?RV<lambda_f5952838e36297a1e2e9d6c748429792>@@AAV<lambda_2116bde18c9e5f34230805ea4a4660ed>@@V<lambda_3c7107de1cc98bf330a3031f42c322a3>@@@?$__crt_seh_guarded_call@PAD@@QAEPAD$$QAV<lambda_f5952838e36297a1e2e9d6c748429792>@@AAV<lambda_2116bde18c9e5f34230805ea4a4660ed>@@$$QAV<lambda_3c7107de1cc98bf330a3031f42c322a3>@@@Z 7e561770     libucrt:setlocale.obj
 0002:00008790       __sehtable$__query_new_handler 7e561790     libucrt:new_handler.obj
 0002:000087b0       __sehtable$??R<lambda_6e4b09c48022b2350581041d5f6b0c4c>@@QBE@XZ 7e5617b0     libucrt:exit.obj
 0002:000087d0       __sehtable$??$?RV<lambda_03b1d95aef87969028cfba75ccab2455>@@AAV<lambda_6e4b09c48022b2350581041d5f6b0c4c>@@V<lambda_22bdf7517842c4b3e53723af5aa32b9e>@@@?$__crt_seh_guarded_call@X@@QAEX$$QAV<lambda_03b1d95aef87969028cfba75ccab2455>@@AAV<lambda_6e4b09c48022b2350581041d5f6b0c4c>@@$$QAV<lambda_22bdf7517842c4b3e53723af5aa32b9e>@@@Z 7e5617d0     libucrt:exit.obj
 0002:000087ec       __unwindtable$___dcrt_uninitialize_environments_nolock 7e5617ec     libucrt:environment_initialization.obj
 0002:000087fc       __ehfuncinfo$___dcrt_uninitialize_environments_nolock 7e5617fc     libucrt:environment_initialization.obj
 0002:00008820       __sehtable$??$?RV<lambda_8e746cf0007f6ed984d6f78af1fec997>@@AAV<lambda_22ebabd17bc4fa466a2aca6d8deb888d>@@V<lambda_18ed0c0b38a6dc0daf1e7ac6d6adf05e>@@@?$__crt_seh_guarded_call@H@@QAEH$$QAV<lambda_8e746cf0007f6ed984d6f78af1fec997>@@AAV<lambda_22ebabd17bc4fa466a2aca6d8deb888d>@@$$QAV<lambda_18ed0c0b38a6dc0daf1e7ac6d6adf05e>@@@Z 7e561820     libucrt:onexit.obj
 0002:00008840       __sehtable$??$?RV<lambda_69a2805e680e0e292e8ba93315fe43a8>@@AAV<lambda_f03950bc5685219e0bcd2087efbe011e>@@V<lambda_03fcd07e894ec930e3f35da366ca99d6>@@@?$__crt_seh_guarded_call@H@@QAEH$$QAV<lambda_69a2805e680e0e292e8ba93315fe43a8>@@AAV<lambda_f03950bc5685219e0bcd2087efbe011e>@@$$QAV<lambda_03fcd07e894ec930e3f35da366ca99d6>@@@Z 7e561840     libucrt:onexit.obj
 0002:00008860       __sehtable$_terminate      7e561860     libucrt:terminate.obj
 0002:00008880       __sehtable$??$?RV<lambda_15ade71b0218206bbe3333a0c9b79046>@@AAV<lambda_da44e0f8b0f19ba52fefafb335991732>@@V<lambda_207f2d024fc103971653565357d6cd41>@@@?$__crt_seh_guarded_call@X@@QAEX$$QAV<lambda_15ade71b0218206bbe3333a0c9b79046>@@AAV<lambda_da44e0f8b0f19ba52fefafb335991732>@@$$QAV<lambda_207f2d024fc103971653565357d6cd41>@@@Z 7e561880     libucrt:per_thread_data.obj
 0002:000088a0       __sehtable$??$?RV<lambda_a7e850c220f1c8d1e6efeecdedd162c6>@@AAV<lambda_46720907175c18b6c9d2717bc0d2d362>@@V<lambda_9048902d66e8d99359bc9897bbb930a8>@@@?$__crt_seh_guarded_call@X@@QAEX$$QAV<lambda_a7e850c220f1c8d1e6efeecdedd162c6>@@AAV<lambda_46720907175c18b6c9d2717bc0d2d362>@@$$QAV<lambda_9048902d66e8d99359bc9897bbb930a8>@@@Z 7e5618a0     libucrt:per_thread_data.obj
 0002:000088c0       __sehtable$??$?RV<lambda_38edbb1296d33220d7e4dd0ed76b244a>@@AAV<lambda_5ce1d447e08cb34b2473517608e21441>@@V<lambda_fb385d3da700c9147fc39e65dd577a8c>@@@?$__crt_seh_guarded_call@X@@QAEX$$QAV<lambda_38edbb1296d33220d7e4dd0ed76b244a>@@AAV<lambda_5ce1d447e08cb34b2473517608e21441>@@$$QAV<lambda_fb385d3da700c9147fc39e65dd577a8c>@@@Z 7e5618c0     libucrt:per_thread_data.obj
 0002:000088e0       __sehtable$??$?RV<lambda_6affb1475c98b40b75cdec977db92e3c>@@AAV<lambda_b8d4b9c228a6ecc3f80208dbb4b4a104>@@V<lambda_608742c3c92a14382c1684fc64f96c88>@@@?$__crt_seh_guarded_call@X@@QAEX$$QAV<lambda_6affb1475c98b40b75cdec977db92e3c>@@AAV<lambda_b8d4b9c228a6ecc3f80208dbb4b4a104>@@$$QAV<lambda_608742c3c92a14382c1684fc64f96c88>@@@Z 7e5618e0     libucrt:per_thread_data.obj
 0002:00008900       __sehtable$??$?RV<lambda_e5124f882df8998aaf41531e079ba474>@@AAV<lambda_3e16ef9562a7dcce91392c22ab16ea36>@@V<lambda_e25ca0880e6ef98be67edffd8c599615>@@@?$__crt_seh_guarded_call@X@@QAEX$$QAV<lambda_e5124f882df8998aaf41531e079ba474>@@AAV<lambda_3e16ef9562a7dcce91392c22ab16ea36>@@$$QAV<lambda_e25ca0880e6ef98be67edffd8c599615>@@@Z 7e561900     libucrt:wsetlocale.obj
 0002:00008920       __sehtable$??$?RV<lambda_4fdada1b837b2abbf20876fac97688ad>@@AAV<lambda_b57350f2640456a0859d250846f69caf>@@V<lambda_eed5e4f92b5b7d55fa22c48c484aaa54>@@@?$__crt_seh_guarded_call@X@@QAEX$$QAV<lambda_4fdada1b837b2abbf20876fac97688ad>@@AAV<lambda_b57350f2640456a0859d250846f69caf>@@$$QAV<lambda_eed5e4f92b5b7d55fa22c48c484aaa54>@@@Z 7e561920     libucrt:wsetlocale.obj
 0002:00008940       __sehtable$??$?RV<lambda_ac03c5d59bd18b09cb88b28331f6bfed>@@AAV<lambda_2a444430fde8c29194d880d93eed5e8f>@@AAV<lambda_02db5278e8aef8b5e4976579d73f5304>@@@?$__crt_seh_guarded_call@X@@QAEX$$QAV<lambda_ac03c5d59bd18b09cb88b28331f6bfed>@@AAV<lambda_2a444430fde8c29194d880d93eed5e8f>@@AAV<lambda_02db5278e8aef8b5e4976579d73f5304>@@@Z 7e561940     libucrt:wsetlocale.obj
 0002:00008960       __sehtable$??$?RV<lambda_6b4b7855443974f2b4b77000ea21c99c>@@AAV<lambda_8f7d3b162ab39427f4fa9995c67a7986>@@V<lambda_cc9a5ba8a5d8428b9634eab82665e5dc>@@@?$__crt_seh_guarded_call@H@@QAEH$$QAV<lambda_6b4b7855443974f2b4b77000ea21c99c>@@AAV<lambda_8f7d3b162ab39427f4fa9995c67a7986>@@$$QAV<lambda_cc9a5ba8a5d8428b9634eab82665e5dc>@@@Z 7e561960     libucrt:winapi_thunks.obj
 0002:00008980       __sehtable$___acrt_initialize_lowio 7e561980     libucrt:ioinit.obj
 0002:000089a0       __sehtable$_raise          7e5619a0     libucrt:signal.obj
 0002:000089c0       __sehtable$??$?RV<lambda_cbab9ec6f41b0180b23cc171c22676b0>@@AAV<lambda_44731a7d0e6d81c3e6aa82d741081786>@@V<lambda_4b292cb8dd18144e164572427af410ab>@@@?$__crt_seh_guarded_call@P6AXH@Z@@QAEP6AXH@Z$$QAV<lambda_cbab9ec6f41b0180b23cc171c22676b0>@@AAV<lambda_44731a7d0e6d81c3e6aa82d741081786>@@$$QAV<lambda_4b292cb8dd18144e164572427af410ab>@@@Z 7e5619c0     libucrt:signal.obj
 0002:000089e0       __sehtable$?update_thread_multibyte_data_internal@@YAPAU__crt_multibyte_data@@QAU__acrt_ptd@@QAPAU1@@Z 7e5619e0     libucrt:mbctype.obj
 0002:00008a00       __sehtable$??$?RV<lambda_ceb1ee4838e85a9d631eb091e2fbe199>@@AAV<lambda_ae742caa10f662c28703da3d2ea5e57e>@@V<lambda_cd08b5d6af4937fe54fc07d0c9bf6b37>@@@?$__crt_seh_guarded_call@X@@QAEX$$QAV<lambda_ceb1ee4838e85a9d631eb091e2fbe199>@@AAV<lambda_ae742caa10f662c28703da3d2ea5e57e>@@$$QAV<lambda_cd08b5d6af4937fe54fc07d0c9bf6b37>@@@Z 7e561a00     libucrt:mbctype.obj
 0002:00008a20       __sehtable$??$?RV<lambda_2866be3712abc81a800a822484c830d8>@@AAV<lambda_39ca0ed439415581b5b15c265174cece>@@V<lambda_2b24c74d71094a6cd0cb82e44167d71b>@@@?$__crt_seh_guarded_call@X@@QAEX$$QAV<lambda_2866be3712abc81a800a822484c830d8>@@AAV<lambda_39ca0ed439415581b5b15c265174cece>@@$$QAV<lambda_2b24c74d71094a6cd0cb82e44167d71b>@@@Z 7e561a20     libucrt:fflush.obj
 0002:00008a40       __sehtable$??$?RV<lambda_2cc53f568c5a2bb6f192f930a45d44ea>@@AAV<lambda_ab61a845afdef5b7c387490eaf3616ee>@@V<lambda_c2ffc0b7726aa6be21d5f0026187e748>@@@?$__crt_seh_guarded_call@X@@QAEX$$QAV<lambda_2cc53f568c5a2bb6f192f930a45d44ea>@@AAV<lambda_ab61a845afdef5b7c387490eaf3616ee>@@$$QAV<lambda_c2ffc0b7726aa6be21d5f0026187e748>@@@Z 7e561a40     libucrt:fflush.obj
 0002:00008a60       __sehtable$___acrt_update_thread_locale_data 7e561a60     libucrt:locale_refcounting.obj
 0002:00008a80       __sehtable$__fcloseall     7e561a80     libucrt:closeall.obj
 0002:00008aa0       __sehtable$___acrt_lowio_ensure_fh_exists 7e561aa0     libucrt:osfinfo.obj
 0002:00008ac0       __sehtable$??$?RV<lambda_9e9de3de5fa147e2223d7db92bc10aa6>@@AAV<lambda_38ce7e780aa69e748d6df282ebc68efe>@@V<lambda_8ca6da459f0f6780f1cff60fdc3d00e5>@@@?$__crt_seh_guarded_call@H@@QAEH$$QAV<lambda_9e9de3de5fa147e2223d7db92bc10aa6>@@AAV<lambda_38ce7e780aa69e748d6df282ebc68efe>@@$$QAV<lambda_8ca6da459f0f6780f1cff60fdc3d00e5>@@@Z 7e561ac0     libucrt:commit.obj
 0002:00008ae0       __sehtable$__write_internal 7e561ae0     libucrt:write.obj
 0002:00008b00       __sehtable$?_fclose_internal@@YAHQAU_iobuf@@AAV__crt_cached_ptd_host@@@Z 7e561b00     libucrt:fclose.obj
 0002:00008b20       __sehtable$??$?RV<lambda_d422a76eb4c3bf3ad751449ab71a6ea4>@@AAV<lambda_c9ba49e555ba839a7b07aa3fbecb7617>@@V<lambda_9476263c8ee91a25d21c55370bdb50de>@@@?$__crt_seh_guarded_call@H@@QAEH$$QAV<lambda_d422a76eb4c3bf3ad751449ab71a6ea4>@@AAV<lambda_c9ba49e555ba839a7b07aa3fbecb7617>@@$$QAV<lambda_9476263c8ee91a25d21c55370bdb50de>@@@Z 7e561b20     libucrt:close.obj
 0002:00008b40       __sehtable$__IsNonwritableInCurrentImage 7e561b40     LIBCMT:pesect.obj
 0002:00008b60       .edata                     7e561b60     War3Injector.exp
 0002:00008b88       rgpv                       7e561b88     War3Injector.exp
 0002:00008b8c       rgszName                   7e561b8c     War3Injector.exp
 0002:00008b90       rgwOrd                     7e561b90     War3Injector.exp
 0002:00008b92       szName                     7e561b92     War3Injector.exp
 0002:00008ba3       $N00001                    7e561ba3     War3Injector.exp
 0002:00008e04       .idata$6                   7e561e04     kernel32:KERNEL32.dll
 0002:00008e2e       .idata$6                   7e561e2e     user32:USER32.dll
 0003:00000010       ?init@std@@3JA             7e563010     libcpmt:xlock.obj
 0003:00000018       ?atcount_cdecl@@3IA        7e563018     libcpmt:iosptrs.obj
 0003:00000040       ?__vcrt_flsindex@@3KA      7e563040     libvcruntime:per_thread_data.obj
 0003:00000068       ?errno_no_memory@@3HA      7e563068     libucrt:errno.obj
 0003:0000006c       ?doserrno_no_memory@@3KA   7e56306c     libucrt:errno.obj
 0003:000000d0       ?__acrt_flsindex@@3KA      7e5630d0     libucrt:per_thread_data.obj
 0003:000000d4       __ctype_loc_style          7e5630d4     libucrt:wsetlocale.obj
 0003:00000250       ?tzstd_program@@3PADA      7e563250     libucrt:timeset.obj
 0003:00000290       ?tzdst_program@@3PADA      7e563290     libucrt:timeset.obj
 0003:000002d0       ?w_tzstd_program@@3PA_WA   7e5632d0     libucrt:timeset.obj
 0003:00000350       ?w_tzdst_program@@3PA_WA   7e563350     libucrt:timeset.obj
 0003:000003d0       ?tzname_states@@3PAY01PADA 7e5633d0     libucrt:timeset.obj
 0003:000003d8       ?w_tzname_states@@3PAY01PA_WA 7e5633d8     libucrt:timeset.obj
 0003:00000600       __mbctypes                 7e563600     libucrt:mbctype.obj
 0003:00000708       __mbcasemaps               7e563708     libucrt:mbctype.obj
 0003:00000808       ?__rgctypeflag@@3PADA      7e563808     libucrt:mbctype.obj
 0003:00000810       ?__rgcode_page_info@@3PAUcode_page_info@@A 7e563810     libucrt:mbctype.obj
 0003:00000a00       ?__dcrt_lowio_console_output_handle@@3PAXA 7e563a00     libucrt:initcon.obj
 0003:00000eb8       ?initlocks@std@@3V_Init_locks@1@A 7e563eb8     libcpmt:xlock.obj
 0003:00000ec0       ?mtx@std@@3PAU_RTL_CRITICAL_SECTION@@A 7e563ec0     libcpmt:xlock.obj
 0003:00000f9c       ?classic_locale@std@@3Vlocale@1@A 7e563f9c     libcpmt:locale0.obj
 0003:00000fa4       ?_Fac_head@std@@3PAU_Fac_node@1@A 7e563fa4     libcpmt:locale0.obj
 0003:00000fa8       ?_Fac_tidy_reg@std@@3U_Fac_tidy_reg_t@1@B 7e563fa8     libcpmt:locale0.obj
 0003:00000fac       _global_locale             7e563fac     libcpmt:locale0.obj
 0003:00000fb0       ?registered@?1??_Setgloballocale@locale@std@@CAXPAX@Z@4_NA 7e563fb0     libcpmt:locale0.obj
 0003:00000fb8       ?stdstr@std@@3PAPAVios_base@1@A 7e563fb8     libcpmt:ios.obj
 0003:00000fe0       ?stdopens@std@@3PADA       7e563fe0     libcpmt:ios.obj
 0003:00001028       ?initlocks@std@@3V_Init_locks@1@A 7e564028     libcpmt:iosptrs.obj
 0003:00001029       ?init_atexit@@3U_Init_atexit@@A 7e564029     libcpmt:iosptrs.obj
 0003:0000102c       ?atfuns_cdecl@@3PAP6AXXZA  7e56402c     libcpmt:iosptrs.obj
 0003:000010cc       ?__proc_attached@@3HA      7e5640cc     LIBCMT:dll_dllmain.obj
 0003:000010d8       ?is_initialized_as_dll@@3_NA 7e5640d8     LIBCMT:utility.obj
 0003:000010d9       ?module_local_atexit_table_initialized@@3_NA 7e5640d9     LIBCMT:utility.obj
 0003:000010dc       ?module_local_atexit_table@@3U_onexit_table_t@@A 7e5640dc     LIBCMT:utility.obj
 0003:000010e8       ?module_local_at_quick_exit_table@@3U_onexit_table_t@@A 7e5640e8     LIBCMT:utility.obj
 0003:00001118       _GS_ExceptionRecord        7e564118     LIBCMT:gs_report.obj
 0003:00001168       _GS_ContextRecord          7e564168     LIBCMT:gs_report.obj
 0003:0000143c       ?__vcrt_startup_thread_ptd@@3U__vcrt_ptd@@A 7e56443c     libvcruntime:per_thread_data.obj
 0003:00001464       ___vcrt_lock_table         7e564464     libvcruntime:locks.obj
 0003:0000147c       ___vcrt_locks_initialized  7e56447c     libvcruntime:locks.obj
 0003:000014a8       ?heap@@3V_HeapManager@@A   7e5644a8     libvcruntime:undname.obj
 0003:000014bc       ?module_handles@@3PAPAUHINSTANCE__@@A 7e5644bc     libvcruntime:winapi_downlevel.obj
 0003:000014c8       ?function_pointers@@3PAPAXA 7e5644c8     libvcruntime:winapi_downlevel.obj
 0003:000014dc       ?__acrt_invalid_parameter_handler@@3V?$dual_state_global@P6AXPB_W00II@Z@__crt_state_management@@A 7e5644dc     libucrt:invalid_parameter.obj
 0003:000014e0       ?__acrt_lock_table@@3PAU_RTL_CRITICAL_SECTION@@A 7e5644e0     libucrt:locks.obj
 0003:00001630       ?__acrt_locks_initialized@@3IA 7e564630     libucrt:locks.obj
 0003:0000163c       ?__acrt_new_handler@@3V?$dual_state_global@P6AHI@Z@__crt_state_management@@A 7e56463c     libucrt:new_handler.obj
 0003:00001640       ?c_termination_complete@@3JA 7e564640     libucrt:exit.obj
 0003:00001644       ?thread_local_exit_callback_func@@3P6GXPAXK0@ZA 7e564644     libucrt:exit.obj
 0003:00001650       ?program_name@?1???$common_configure_argv@D@@YAHW4_crt_argv_mode@@@Z@4PADA 7e564650     libucrt:argv_parsing.obj
 0003:00001788       ?module_handles@@3PAPAUHINSTANCE__@@A 7e564788     libucrt:winapi_thunks.obj
 0003:000017d8       ?encoded_function_pointers@@3PAPAXA 7e5647d8     libucrt:winapi_thunks.obj
 0003:00001860       ?static_enum_proc@?1??enum_system_locales_ex_nolock@@YAHQ6GHPA_WKJ@Z@Z@4P6GH0KJ@ZA 7e564860     libucrt:winapi_thunks.obj
 0003:00001864       ?internal_state@?1??_mbtowc_internal@@9@4U_Mbstatet@@A 7e564864     libucrt:mbtowc.obj
 0003:00001a84       ?ctrlc_action@@3V?$dual_state_global@P6AXH@Z@__crt_state_management@@A 7e564a84     libucrt:signal.obj
 0003:00001a88       ?ctrlbreak_action@@3V?$dual_state_global@P6AXH@Z@__crt_state_management@@A 7e564a88     libucrt:signal.obj
 0003:00001a8c       ?abort_action@@3V?$dual_state_global@P6AXH@Z@__crt_state_management@@A 7e564a8c     libucrt:signal.obj
 0003:00001a90       ?term_action@@3V?$dual_state_global@P6AXH@Z@__crt_state_management@@A 7e564a90     libucrt:signal.obj
 0003:00001aa0       ?_tzname@@3V?$dual_state_global@PAPAD@__crt_state_management@@A 7e564aa0     libucrt:timeset.obj
 0003:00001aa4       ?w_tzname@@3V?$dual_state_global@PAPA_W@__crt_state_management@@A 7e564aa4     libucrt:timeset.obj
 0003:00001aa8       ?tz_api_used@@3HA          7e564aa8     libucrt:tzset.obj
 0003:00001aac       ?tzset_init_state@@3V?$dual_state_global@J@__crt_state_management@@A 7e564aac     libucrt:tzset.obj
 0003:00001ab0       ?tz_info@@3U_TIME_ZONE_INFORMATION@@A 7e564ab0     libucrt:tzset.obj
 0003:00001b68       ?fSystemSet@@3HA           7e564b68     libucrt:mbctype.obj
 0003:00001b6c       ?initialized@?1??__acrt_initialize_multibyte@@9@4_NA 7e564b6c     libucrt:mbctype.obj
 0003:00001b8c       ?user_matherr@@3V?$dual_state_global@P6AHPAU_exception@@@Z@__crt_state_management@@A 7e564b8c     libucrt:matherr.obj
 0003:00001b90       ?__acrt_global_new_mode@@3V?$dual_state_global@J@__crt_state_management@@A 7e564b90     libucrt:new_mode.obj
 0003:00001b94       ?internal_pst@?1??__mbrtoc32_utf8@__crt_mbstring@@YAIPA_UPBDIPAU_Mbstatet@@AAV__crt_cached_ptd_host@@@Z@4U3@A 7e564b94     libucrt:mbrtoc32.obj
 0003:00001b9c       ?internal_pst@?1??__c16rtomb_utf8@__crt_mbstring@@YAIPAD_SPAU_Mbstatet@@AAV__crt_cached_ptd_host@@@Z@4U3@A 7e564b9c     libucrt:c16rtomb.obj
 0003:00001ba4       ?__acrt_app_type@@3W4_crt_app_type@@A 7e564ba4     libucrt:report_runtime_error.obj
 0003:00001bac       __pmatherr_set             7e564bac     libucrt:libm_error.obj
 0004:00000060       $R000000                   7e565060     * linker generated manifest res *
